
;CodeVisionAVR C Compiler V2.05.0 Professional
;(C) Copyright 1998-2010 Pavel Haiduc, HP InfoTech s.r.l.
;http://www.hpinfotech.com

;Chip type                : ATmega128
;Program type             : Application
;Clock frequency          : 16.000000 MHz
;Memory model             : Small
;Optimize for             : Size
;(s)printf features       : int, width
;(s)scanf features        : int, width
;External RAM size        : 0
;Data Stack size          : 1024 byte(s)
;Heap size                : 0 byte(s)
;Promote 'char' to 'int'  : Yes
;'char' is unsigned       : Yes
;8 bit enums              : Yes
;global 'const' stored in FLASH: Yes
;Enhanced core instructions    : On
;Smart register allocation     : On
;Automatic register allocation : On

	#pragma AVRPART ADMIN PART_NAME ATmega128
	#pragma AVRPART MEMORY PROG_FLASH 131072
	#pragma AVRPART MEMORY EEPROM 4096
	#pragma AVRPART MEMORY INT_SRAM SIZE 4351
	#pragma AVRPART MEMORY INT_SRAM START_ADDR 0x100

	#define CALL_SUPPORTED 1

	.LISTMAC
	.EQU UDRE=0x5
	.EQU RXC=0x7
	.EQU USR=0xB
	.EQU UDR=0xC
	.EQU SPSR=0xE
	.EQU SPDR=0xF
	.EQU EERE=0x0
	.EQU EEWE=0x1
	.EQU EEMWE=0x2
	.EQU EECR=0x1C
	.EQU EEDR=0x1D
	.EQU EEARL=0x1E
	.EQU EEARH=0x1F
	.EQU WDTCR=0x21
	.EQU MCUCR=0x35
	.EQU RAMPZ=0x3B
	.EQU SPL=0x3D
	.EQU SPH=0x3E
	.EQU SREG=0x3F
	.EQU XMCRA=0x6D
	.EQU XMCRB=0x6C

	.DEF R0X0=R0
	.DEF R0X1=R1
	.DEF R0X2=R2
	.DEF R0X3=R3
	.DEF R0X4=R4
	.DEF R0X5=R5
	.DEF R0X6=R6
	.DEF R0X7=R7
	.DEF R0X8=R8
	.DEF R0X9=R9
	.DEF R0XA=R10
	.DEF R0XB=R11
	.DEF R0XC=R12
	.DEF R0XD=R13
	.DEF R0XE=R14
	.DEF R0XF=R15
	.DEF R0X10=R16
	.DEF R0X11=R17
	.DEF R0X12=R18
	.DEF R0X13=R19
	.DEF R0X14=R20
	.DEF R0X15=R21
	.DEF R0X16=R22
	.DEF R0X17=R23
	.DEF R0X18=R24
	.DEF R0X19=R25
	.DEF R0X1A=R26
	.DEF R0X1B=R27
	.DEF R0X1C=R28
	.DEF R0X1D=R29
	.DEF R0X1E=R30
	.DEF R0X1F=R31

	.EQU __SRAM_START=0x0100
	.EQU __SRAM_END=0x10FF
	.EQU __DSTACK_SIZE=0x0400
	.EQU __HEAP_SIZE=0x0000
	.EQU __CLEAR_SRAM_SIZE=__SRAM_END-__SRAM_START+1

	.MACRO __CPD1N
	CPI  R30,LOW(@0)
	LDI  R26,HIGH(@0)
	CPC  R31,R26
	LDI  R26,BYTE3(@0)
	CPC  R22,R26
	LDI  R26,BYTE4(@0)
	CPC  R23,R26
	.ENDM

	.MACRO __CPD2N
	CPI  R26,LOW(@0)
	LDI  R30,HIGH(@0)
	CPC  R27,R30
	LDI  R30,BYTE3(@0)
	CPC  R24,R30
	LDI  R30,BYTE4(@0)
	CPC  R25,R30
	.ENDM

	.MACRO __CPWRR
	CP   R@0,R@2
	CPC  R@1,R@3
	.ENDM

	.MACRO __CPWRN
	CPI  R@0,LOW(@2)
	LDI  R30,HIGH(@2)
	CPC  R@1,R30
	.ENDM

	.MACRO __ADDB1MN
	SUBI R30,LOW(-@0-(@1))
	.ENDM

	.MACRO __ADDB2MN
	SUBI R26,LOW(-@0-(@1))
	.ENDM

	.MACRO __ADDW1MN
	SUBI R30,LOW(-@0-(@1))
	SBCI R31,HIGH(-@0-(@1))
	.ENDM

	.MACRO __ADDW2MN
	SUBI R26,LOW(-@0-(@1))
	SBCI R27,HIGH(-@0-(@1))
	.ENDM

	.MACRO __ADDW1FN
	SUBI R30,LOW(-2*@0-(@1))
	SBCI R31,HIGH(-2*@0-(@1))
	.ENDM

	.MACRO __ADDD1FN
	SUBI R30,LOW(-2*@0-(@1))
	SBCI R31,HIGH(-2*@0-(@1))
	SBCI R22,BYTE3(-2*@0-(@1))
	.ENDM

	.MACRO __ADDD1N
	SUBI R30,LOW(-@0)
	SBCI R31,HIGH(-@0)
	SBCI R22,BYTE3(-@0)
	SBCI R23,BYTE4(-@0)
	.ENDM

	.MACRO __ADDD2N
	SUBI R26,LOW(-@0)
	SBCI R27,HIGH(-@0)
	SBCI R24,BYTE3(-@0)
	SBCI R25,BYTE4(-@0)
	.ENDM

	.MACRO __SUBD1N
	SUBI R30,LOW(@0)
	SBCI R31,HIGH(@0)
	SBCI R22,BYTE3(@0)
	SBCI R23,BYTE4(@0)
	.ENDM

	.MACRO __SUBD2N
	SUBI R26,LOW(@0)
	SBCI R27,HIGH(@0)
	SBCI R24,BYTE3(@0)
	SBCI R25,BYTE4(@0)
	.ENDM

	.MACRO __ANDBMNN
	LDS  R30,@0+(@1)
	ANDI R30,LOW(@2)
	STS  @0+(@1),R30
	.ENDM

	.MACRO __ANDWMNN
	LDS  R30,@0+(@1)
	ANDI R30,LOW(@2)
	STS  @0+(@1),R30
	LDS  R30,@0+(@1)+1
	ANDI R30,HIGH(@2)
	STS  @0+(@1)+1,R30
	.ENDM

	.MACRO __ANDD1N
	ANDI R30,LOW(@0)
	ANDI R31,HIGH(@0)
	ANDI R22,BYTE3(@0)
	ANDI R23,BYTE4(@0)
	.ENDM

	.MACRO __ANDD2N
	ANDI R26,LOW(@0)
	ANDI R27,HIGH(@0)
	ANDI R24,BYTE3(@0)
	ANDI R25,BYTE4(@0)
	.ENDM

	.MACRO __ORBMNN
	LDS  R30,@0+(@1)
	ORI  R30,LOW(@2)
	STS  @0+(@1),R30
	.ENDM

	.MACRO __ORWMNN
	LDS  R30,@0+(@1)
	ORI  R30,LOW(@2)
	STS  @0+(@1),R30
	LDS  R30,@0+(@1)+1
	ORI  R30,HIGH(@2)
	STS  @0+(@1)+1,R30
	.ENDM

	.MACRO __ORD1N
	ORI  R30,LOW(@0)
	ORI  R31,HIGH(@0)
	ORI  R22,BYTE3(@0)
	ORI  R23,BYTE4(@0)
	.ENDM

	.MACRO __ORD2N
	ORI  R26,LOW(@0)
	ORI  R27,HIGH(@0)
	ORI  R24,BYTE3(@0)
	ORI  R25,BYTE4(@0)
	.ENDM

	.MACRO __DELAY_USB
	LDI  R24,LOW(@0)
__DELAY_USB_LOOP:
	DEC  R24
	BRNE __DELAY_USB_LOOP
	.ENDM

	.MACRO __DELAY_USW
	LDI  R24,LOW(@0)
	LDI  R25,HIGH(@0)
__DELAY_USW_LOOP:
	SBIW R24,1
	BRNE __DELAY_USW_LOOP
	.ENDM

	.MACRO __GETD1S
	LDD  R30,Y+@0
	LDD  R31,Y+@0+1
	LDD  R22,Y+@0+2
	LDD  R23,Y+@0+3
	.ENDM

	.MACRO __GETD2S
	LDD  R26,Y+@0
	LDD  R27,Y+@0+1
	LDD  R24,Y+@0+2
	LDD  R25,Y+@0+3
	.ENDM

	.MACRO __PUTD1S
	STD  Y+@0,R30
	STD  Y+@0+1,R31
	STD  Y+@0+2,R22
	STD  Y+@0+3,R23
	.ENDM

	.MACRO __PUTD2S
	STD  Y+@0,R26
	STD  Y+@0+1,R27
	STD  Y+@0+2,R24
	STD  Y+@0+3,R25
	.ENDM

	.MACRO __PUTDZ2
	STD  Z+@0,R26
	STD  Z+@0+1,R27
	STD  Z+@0+2,R24
	STD  Z+@0+3,R25
	.ENDM

	.MACRO __CLRD1S
	STD  Y+@0,R30
	STD  Y+@0+1,R30
	STD  Y+@0+2,R30
	STD  Y+@0+3,R30
	.ENDM

	.MACRO __POINTB1MN
	LDI  R30,LOW(@0+(@1))
	.ENDM

	.MACRO __POINTW1MN
	LDI  R30,LOW(@0+(@1))
	LDI  R31,HIGH(@0+(@1))
	.ENDM

	.MACRO __POINTD1M
	LDI  R30,LOW(@0)
	LDI  R31,HIGH(@0)
	LDI  R22,BYTE3(@0)
	LDI  R23,BYTE4(@0)
	.ENDM

	.MACRO __POINTW1FN
	LDI  R30,LOW(2*@0+(@1))
	LDI  R31,HIGH(2*@0+(@1))
	.ENDM

	.MACRO __POINTD1FN
	LDI  R30,LOW(2*@0+(@1))
	LDI  R31,HIGH(2*@0+(@1))
	LDI  R22,BYTE3(2*@0+(@1))
	LDI  R23,BYTE4(2*@0+(@1))
	.ENDM

	.MACRO __POINTB2MN
	LDI  R26,LOW(@0+(@1))
	.ENDM

	.MACRO __POINTW2MN
	LDI  R26,LOW(@0+(@1))
	LDI  R27,HIGH(@0+(@1))
	.ENDM

	.MACRO __POINTBRM
	LDI  R@0,LOW(@1)
	.ENDM

	.MACRO __POINTWRM
	LDI  R@0,LOW(@2)
	LDI  R@1,HIGH(@2)
	.ENDM

	.MACRO __POINTBRMN
	LDI  R@0,LOW(@1+(@2))
	.ENDM

	.MACRO __POINTWRMN
	LDI  R@0,LOW(@2+(@3))
	LDI  R@1,HIGH(@2+(@3))
	.ENDM

	.MACRO __POINTWRFN
	LDI  R@0,LOW(@2*2+(@3))
	LDI  R@1,HIGH(@2*2+(@3))
	.ENDM

	.MACRO __GETD1N
	LDI  R30,LOW(@0)
	LDI  R31,HIGH(@0)
	LDI  R22,BYTE3(@0)
	LDI  R23,BYTE4(@0)
	.ENDM

	.MACRO __GETD2N
	LDI  R26,LOW(@0)
	LDI  R27,HIGH(@0)
	LDI  R24,BYTE3(@0)
	LDI  R25,BYTE4(@0)
	.ENDM

	.MACRO __GETB1MN
	LDS  R30,@0+(@1)
	.ENDM

	.MACRO __GETB1HMN
	LDS  R31,@0+(@1)
	.ENDM

	.MACRO __GETW1MN
	LDS  R30,@0+(@1)
	LDS  R31,@0+(@1)+1
	.ENDM

	.MACRO __GETD1MN
	LDS  R30,@0+(@1)
	LDS  R31,@0+(@1)+1
	LDS  R22,@0+(@1)+2
	LDS  R23,@0+(@1)+3
	.ENDM

	.MACRO __GETBRMN
	LDS  R@0,@1+(@2)
	.ENDM

	.MACRO __GETWRMN
	LDS  R@0,@2+(@3)
	LDS  R@1,@2+(@3)+1
	.ENDM

	.MACRO __GETWRZ
	LDD  R@0,Z+@2
	LDD  R@1,Z+@2+1
	.ENDM

	.MACRO __GETD2Z
	LDD  R26,Z+@0
	LDD  R27,Z+@0+1
	LDD  R24,Z+@0+2
	LDD  R25,Z+@0+3
	.ENDM

	.MACRO __GETB2MN
	LDS  R26,@0+(@1)
	.ENDM

	.MACRO __GETW2MN
	LDS  R26,@0+(@1)
	LDS  R27,@0+(@1)+1
	.ENDM

	.MACRO __GETD2MN
	LDS  R26,@0+(@1)
	LDS  R27,@0+(@1)+1
	LDS  R24,@0+(@1)+2
	LDS  R25,@0+(@1)+3
	.ENDM

	.MACRO __PUTB1MN
	STS  @0+(@1),R30
	.ENDM

	.MACRO __PUTW1MN
	STS  @0+(@1),R30
	STS  @0+(@1)+1,R31
	.ENDM

	.MACRO __PUTD1MN
	STS  @0+(@1),R30
	STS  @0+(@1)+1,R31
	STS  @0+(@1)+2,R22
	STS  @0+(@1)+3,R23
	.ENDM

	.MACRO __PUTB1EN
	LDI  R26,LOW(@0+(@1))
	LDI  R27,HIGH(@0+(@1))
	CALL __EEPROMWRB
	.ENDM

	.MACRO __PUTW1EN
	LDI  R26,LOW(@0+(@1))
	LDI  R27,HIGH(@0+(@1))
	CALL __EEPROMWRW
	.ENDM

	.MACRO __PUTD1EN
	LDI  R26,LOW(@0+(@1))
	LDI  R27,HIGH(@0+(@1))
	CALL __EEPROMWRD
	.ENDM

	.MACRO __PUTBR0MN
	STS  @0+(@1),R0
	.ENDM

	.MACRO __PUTBMRN
	STS  @0+(@1),R@2
	.ENDM

	.MACRO __PUTWMRN
	STS  @0+(@1),R@2
	STS  @0+(@1)+1,R@3
	.ENDM

	.MACRO __PUTBZR
	STD  Z+@1,R@0
	.ENDM

	.MACRO __PUTWZR
	STD  Z+@2,R@0
	STD  Z+@2+1,R@1
	.ENDM

	.MACRO __GETW1R
	MOV  R30,R@0
	MOV  R31,R@1
	.ENDM

	.MACRO __GETW2R
	MOV  R26,R@0
	MOV  R27,R@1
	.ENDM

	.MACRO __GETWRN
	LDI  R@0,LOW(@2)
	LDI  R@1,HIGH(@2)
	.ENDM

	.MACRO __PUTW1R
	MOV  R@0,R30
	MOV  R@1,R31
	.ENDM

	.MACRO __PUTW2R
	MOV  R@0,R26
	MOV  R@1,R27
	.ENDM

	.MACRO __ADDWRN
	SUBI R@0,LOW(-@2)
	SBCI R@1,HIGH(-@2)
	.ENDM

	.MACRO __ADDWRR
	ADD  R@0,R@2
	ADC  R@1,R@3
	.ENDM

	.MACRO __SUBWRN
	SUBI R@0,LOW(@2)
	SBCI R@1,HIGH(@2)
	.ENDM

	.MACRO __SUBWRR
	SUB  R@0,R@2
	SBC  R@1,R@3
	.ENDM

	.MACRO __ANDWRN
	ANDI R@0,LOW(@2)
	ANDI R@1,HIGH(@2)
	.ENDM

	.MACRO __ANDWRR
	AND  R@0,R@2
	AND  R@1,R@3
	.ENDM

	.MACRO __ORWRN
	ORI  R@0,LOW(@2)
	ORI  R@1,HIGH(@2)
	.ENDM

	.MACRO __ORWRR
	OR   R@0,R@2
	OR   R@1,R@3
	.ENDM

	.MACRO __EORWRR
	EOR  R@0,R@2
	EOR  R@1,R@3
	.ENDM

	.MACRO __GETWRS
	LDD  R@0,Y+@2
	LDD  R@1,Y+@2+1
	.ENDM

	.MACRO __PUTBSR
	STD  Y+@1,R@0
	.ENDM

	.MACRO __PUTWSR
	STD  Y+@2,R@0
	STD  Y+@2+1,R@1
	.ENDM

	.MACRO __MOVEWRR
	MOV  R@0,R@2
	MOV  R@1,R@3
	.ENDM

	.MACRO __INWR
	IN   R@0,@2
	IN   R@1,@2+1
	.ENDM

	.MACRO __OUTWR
	OUT  @2+1,R@1
	OUT  @2,R@0
	.ENDM

	.MACRO __CALL1MN
	LDS  R30,@0+(@1)
	LDS  R31,@0+(@1)+1
	ICALL
	.ENDM

	.MACRO __CALL1FN
	LDI  R30,LOW(2*@0+(@1))
	LDI  R31,HIGH(2*@0+(@1))
	CALL __GETW1PF
	ICALL
	.ENDM

	.MACRO __CALL2EN
	LDI  R26,LOW(@0+(@1))
	LDI  R27,HIGH(@0+(@1))
	CALL __EEPROMRDW
	ICALL
	.ENDM

	.MACRO __GETW1STACK
	IN   R26,SPL
	IN   R27,SPH
	ADIW R26,@0+1
	LD   R30,X+
	LD   R31,X
	.ENDM

	.MACRO __GETD1STACK
	IN   R26,SPL
	IN   R27,SPH
	ADIW R26,@0+1
	LD   R30,X+
	LD   R31,X+
	LD   R22,X
	.ENDM

	.MACRO __NBST
	BST  R@0,@1
	IN   R30,SREG
	LDI  R31,0x40
	EOR  R30,R31
	OUT  SREG,R30
	.ENDM


	.MACRO __PUTB1SN
	LDD  R26,Y+@0
	LDD  R27,Y+@0+1
	SUBI R26,LOW(-@1)
	SBCI R27,HIGH(-@1)
	ST   X,R30
	.ENDM

	.MACRO __PUTW1SN
	LDD  R26,Y+@0
	LDD  R27,Y+@0+1
	SUBI R26,LOW(-@1)
	SBCI R27,HIGH(-@1)
	ST   X+,R30
	ST   X,R31
	.ENDM

	.MACRO __PUTD1SN
	LDD  R26,Y+@0
	LDD  R27,Y+@0+1
	SUBI R26,LOW(-@1)
	SBCI R27,HIGH(-@1)
	CALL __PUTDP1
	.ENDM

	.MACRO __PUTB1SNS
	LDD  R26,Y+@0
	LDD  R27,Y+@0+1
	ADIW R26,@1
	ST   X,R30
	.ENDM

	.MACRO __PUTW1SNS
	LDD  R26,Y+@0
	LDD  R27,Y+@0+1
	ADIW R26,@1
	ST   X+,R30
	ST   X,R31
	.ENDM

	.MACRO __PUTD1SNS
	LDD  R26,Y+@0
	LDD  R27,Y+@0+1
	ADIW R26,@1
	CALL __PUTDP1
	.ENDM

	.MACRO __PUTB1PMN
	LDS  R26,@0
	LDS  R27,@0+1
	SUBI R26,LOW(-@1)
	SBCI R27,HIGH(-@1)
	ST   X,R30
	.ENDM

	.MACRO __PUTW1PMN
	LDS  R26,@0
	LDS  R27,@0+1
	SUBI R26,LOW(-@1)
	SBCI R27,HIGH(-@1)
	ST   X+,R30
	ST   X,R31
	.ENDM

	.MACRO __PUTD1PMN
	LDS  R26,@0
	LDS  R27,@0+1
	SUBI R26,LOW(-@1)
	SBCI R27,HIGH(-@1)
	CALL __PUTDP1
	.ENDM

	.MACRO __PUTB1PMNS
	LDS  R26,@0
	LDS  R27,@0+1
	ADIW R26,@1
	ST   X,R30
	.ENDM

	.MACRO __PUTW1PMNS
	LDS  R26,@0
	LDS  R27,@0+1
	ADIW R26,@1
	ST   X+,R30
	ST   X,R31
	.ENDM

	.MACRO __PUTD1PMNS
	LDS  R26,@0
	LDS  R27,@0+1
	ADIW R26,@1
	CALL __PUTDP1
	.ENDM

	.MACRO __PUTB1RN
	MOVW R26,R@0
	SUBI R26,LOW(-@1)
	SBCI R27,HIGH(-@1)
	ST   X,R30
	.ENDM

	.MACRO __PUTW1RN
	MOVW R26,R@0
	SUBI R26,LOW(-@1)
	SBCI R27,HIGH(-@1)
	ST   X+,R30
	ST   X,R31
	.ENDM

	.MACRO __PUTD1RN
	MOVW R26,R@0
	SUBI R26,LOW(-@1)
	SBCI R27,HIGH(-@1)
	CALL __PUTDP1
	.ENDM

	.MACRO __PUTB1RNS
	MOVW R26,R@0
	ADIW R26,@1
	ST   X,R30
	.ENDM

	.MACRO __PUTW1RNS
	MOVW R26,R@0
	ADIW R26,@1
	ST   X+,R30
	ST   X,R31
	.ENDM

	.MACRO __PUTD1RNS
	MOVW R26,R@0
	ADIW R26,@1
	CALL __PUTDP1
	.ENDM

	.MACRO __PUTB1RON
	MOV  R26,R@0
	MOV  R27,R@1
	SUBI R26,LOW(-@2)
	SBCI R27,HIGH(-@2)
	ST   X,R30
	.ENDM

	.MACRO __PUTW1RON
	MOV  R26,R@0
	MOV  R27,R@1
	SUBI R26,LOW(-@2)
	SBCI R27,HIGH(-@2)
	ST   X+,R30
	ST   X,R31
	.ENDM

	.MACRO __PUTD1RON
	MOV  R26,R@0
	MOV  R27,R@1
	SUBI R26,LOW(-@2)
	SBCI R27,HIGH(-@2)
	CALL __PUTDP1
	.ENDM

	.MACRO __PUTB1RONS
	MOV  R26,R@0
	MOV  R27,R@1
	ADIW R26,@2
	ST   X,R30
	.ENDM

	.MACRO __PUTW1RONS
	MOV  R26,R@0
	MOV  R27,R@1
	ADIW R26,@2
	ST   X+,R30
	ST   X,R31
	.ENDM

	.MACRO __PUTD1RONS
	MOV  R26,R@0
	MOV  R27,R@1
	ADIW R26,@2
	CALL __PUTDP1
	.ENDM


	.MACRO __GETB1SX
	MOVW R30,R28
	SUBI R30,LOW(-@0)
	SBCI R31,HIGH(-@0)
	LD   R30,Z
	.ENDM

	.MACRO __GETB1HSX
	MOVW R30,R28
	SUBI R30,LOW(-@0)
	SBCI R31,HIGH(-@0)
	LD   R31,Z
	.ENDM

	.MACRO __GETW1SX
	MOVW R30,R28
	SUBI R30,LOW(-@0)
	SBCI R31,HIGH(-@0)
	LD   R0,Z+
	LD   R31,Z
	MOV  R30,R0
	.ENDM

	.MACRO __GETD1SX
	MOVW R30,R28
	SUBI R30,LOW(-@0)
	SBCI R31,HIGH(-@0)
	LD   R0,Z+
	LD   R1,Z+
	LD   R22,Z+
	LD   R23,Z
	MOVW R30,R0
	.ENDM

	.MACRO __GETB2SX
	MOVW R26,R28
	SUBI R26,LOW(-@0)
	SBCI R27,HIGH(-@0)
	LD   R26,X
	.ENDM

	.MACRO __GETW2SX
	MOVW R26,R28
	SUBI R26,LOW(-@0)
	SBCI R27,HIGH(-@0)
	LD   R0,X+
	LD   R27,X
	MOV  R26,R0
	.ENDM

	.MACRO __GETD2SX
	MOVW R26,R28
	SUBI R26,LOW(-@0)
	SBCI R27,HIGH(-@0)
	LD   R0,X+
	LD   R1,X+
	LD   R24,X+
	LD   R25,X
	MOVW R26,R0
	.ENDM

	.MACRO __GETBRSX
	MOVW R30,R28
	SUBI R30,LOW(-@1)
	SBCI R31,HIGH(-@1)
	LD   R@0,Z
	.ENDM

	.MACRO __GETWRSX
	MOVW R30,R28
	SUBI R30,LOW(-@2)
	SBCI R31,HIGH(-@2)
	LD   R@0,Z+
	LD   R@1,Z
	.ENDM

	.MACRO __GETBRSX2
	MOVW R26,R28
	SUBI R26,LOW(-@1)
	SBCI R27,HIGH(-@1)
	LD   R@0,X
	.ENDM

	.MACRO __GETWRSX2
	MOVW R26,R28
	SUBI R26,LOW(-@2)
	SBCI R27,HIGH(-@2)
	LD   R@0,X+
	LD   R@1,X
	.ENDM

	.MACRO __LSLW8SX
	MOVW R30,R28
	SUBI R30,LOW(-@0)
	SBCI R31,HIGH(-@0)
	LD   R31,Z
	CLR  R30
	.ENDM

	.MACRO __PUTB1SX
	MOVW R26,R28
	SUBI R26,LOW(-@0)
	SBCI R27,HIGH(-@0)
	ST   X,R30
	.ENDM

	.MACRO __PUTW1SX
	MOVW R26,R28
	SUBI R26,LOW(-@0)
	SBCI R27,HIGH(-@0)
	ST   X+,R30
	ST   X,R31
	.ENDM

	.MACRO __PUTD1SX
	MOVW R26,R28
	SUBI R26,LOW(-@0)
	SBCI R27,HIGH(-@0)
	ST   X+,R30
	ST   X+,R31
	ST   X+,R22
	ST   X,R23
	.ENDM

	.MACRO __CLRW1SX
	MOVW R26,R28
	SUBI R26,LOW(-@0)
	SBCI R27,HIGH(-@0)
	ST   X+,R30
	ST   X,R30
	.ENDM

	.MACRO __CLRD1SX
	MOVW R26,R28
	SUBI R26,LOW(-@0)
	SBCI R27,HIGH(-@0)
	ST   X+,R30
	ST   X+,R30
	ST   X+,R30
	ST   X,R30
	.ENDM

	.MACRO __PUTB2SX
	MOVW R30,R28
	SUBI R30,LOW(-@0)
	SBCI R31,HIGH(-@0)
	ST   Z,R26
	.ENDM

	.MACRO __PUTW2SX
	MOVW R30,R28
	SUBI R30,LOW(-@0)
	SBCI R31,HIGH(-@0)
	ST   Z+,R26
	ST   Z,R27
	.ENDM

	.MACRO __PUTD2SX
	MOVW R30,R28
	SUBI R30,LOW(-@0)
	SBCI R31,HIGH(-@0)
	ST   Z+,R26
	ST   Z+,R27
	ST   Z+,R24
	ST   Z,R25
	.ENDM

	.MACRO __PUTBSRX
	MOVW R30,R28
	SUBI R30,LOW(-@1)
	SBCI R31,HIGH(-@1)
	ST   Z,R@0
	.ENDM

	.MACRO __PUTWSRX
	MOVW R30,R28
	SUBI R30,LOW(-@2)
	SBCI R31,HIGH(-@2)
	ST   Z+,R@0
	ST   Z,R@1
	.ENDM

	.MACRO __PUTB1SNX
	MOVW R26,R28
	SUBI R26,LOW(-@0)
	SBCI R27,HIGH(-@0)
	LD   R0,X+
	LD   R27,X
	MOV  R26,R0
	SUBI R26,LOW(-@1)
	SBCI R27,HIGH(-@1)
	ST   X,R30
	.ENDM

	.MACRO __PUTW1SNX
	MOVW R26,R28
	SUBI R26,LOW(-@0)
	SBCI R27,HIGH(-@0)
	LD   R0,X+
	LD   R27,X
	MOV  R26,R0
	SUBI R26,LOW(-@1)
	SBCI R27,HIGH(-@1)
	ST   X+,R30
	ST   X,R31
	.ENDM

	.MACRO __PUTD1SNX
	MOVW R26,R28
	SUBI R26,LOW(-@0)
	SBCI R27,HIGH(-@0)
	LD   R0,X+
	LD   R27,X
	MOV  R26,R0
	SUBI R26,LOW(-@1)
	SBCI R27,HIGH(-@1)
	ST   X+,R30
	ST   X+,R31
	ST   X+,R22
	ST   X,R23
	.ENDM

	.MACRO __MULBRR
	MULS R@0,R@1
	MOVW R30,R0
	.ENDM

	.MACRO __MULBRRU
	MUL  R@0,R@1
	MOVW R30,R0
	.ENDM

	.MACRO __MULBRR0
	MULS R@0,R@1
	.ENDM

	.MACRO __MULBRRU0
	MUL  R@0,R@1
	.ENDM

	.MACRO __MULBNWRU
	LDI  R26,@2
	MUL  R26,R@0
	MOVW R30,R0
	MUL  R26,R@1
	ADD  R31,R0
	.ENDM

;NAME DEFINITIONS FOR GLOBAL VARIABLES ALLOCATED TO REGISTERS
	.DEF _h=R5
	.DEF _sam_num=R4
	.DEF _i=R7
	.DEF _j=R6
	.DEF _position=R8
	.DEF _Pgain=R11
	.DEF _RPhaseIndex=R10
	.DEF _LPhaseIndex=R13
	.DEF _stop_flag=R12

	.CSEG
	.ORG 0x00

;START OF CODE MARKER
__START_OF_CODE:

;INTERRUPT VECTORS
	JMP  __RESET
	JMP  0x00
	JMP  0x00
	JMP  0x00
	JMP  0x00
	JMP  0x00
	JMP  0x00
	JMP  0x00
	JMP  0x00
	JMP  0x00
	JMP  0x00
	JMP  0x00
	JMP  _timer1_compa_isr
	JMP  0x00
	JMP  0x00
	JMP  0x00
	JMP  0x00
	JMP  0x00
	JMP  0x00
	JMP  0x00
	JMP  0x00
	JMP  _adc_isr
	JMP  0x00
	JMP  0x00
	JMP  0x00
	JMP  0x00
	JMP  _timer3_compa_isr
	JMP  0x00
	JMP  0x00
	JMP  0x00
	JMP  0x00
	JMP  0x00
	JMP  0x00
	JMP  0x00
	JMP  0x00

_table:
	.DB  0xC5,0x55,0x50,0x55,0xDC,0x54,0x69,0x54
	.DB  0xF7,0x53,0x87,0x53,0x18,0x53,0xAA,0x52
	.DB  0x3D,0x52,0xD1,0x51,0x67,0x51,0xFD,0x50
	.DB  0x95,0x50,0x2D,0x50,0xC7,0x4F,0x62,0x4F
	.DB  0xFE,0x4E,0x9A,0x4E,0x38,0x4E,0xD7,0x4D
	.DB  0x76,0x4D,0x17,0x4D,0xB9,0x4C,0x5B,0x4C
	.DB  0xFF,0x4B,0xA3,0x4B,0x48,0x4B,0xEE,0x4A
	.DB  0x95,0x4A,0x3D,0x4A,0xE5,0x49,0x8F,0x49
	.DB  0x39,0x49,0xE4,0x48,0x90,0x48,0x3C,0x48
	.DB  0xEA,0x47,0x98,0x47,0x47,0x47,0xF6,0x46
	.DB  0xA7,0x46,0x58,0x46,0x9,0x46,0xBC,0x45
	.DB  0x6F,0x45,0x23,0x45,0xD7,0x44,0x8C,0x44
	.DB  0x42,0x44,0xF8,0x43,0xAF,0x43,0x67,0x43
	.DB  0x1F,0x43,0xD8,0x42,0x92,0x42,0x4C,0x42
	.DB  0x6,0x42,0xC2,0x41,0x7E,0x41,0x3A,0x41
	.DB  0xF7,0x40,0xB4,0x40,0x72,0x40,0x31,0x40
	.DB  0xF0,0x3F,0xB0,0x3F,0x70,0x3F,0x31,0x3F
	.DB  0xF2,0x3E,0xB3,0x3E,0x76,0x3E,0x38,0x3E
	.DB  0xFB,0x3D,0xBF,0x3D,0x83,0x3D,0x48,0x3D
	.DB  0xD,0x3D,0xD2,0x3C,0x98,0x3C,0x5F,0x3C
	.DB  0x25,0x3C,0xED,0x3B,0xB4,0x3B,0x7C,0x3B
	.DB  0x45,0x3B,0xE,0x3B,0xD7,0x3A,0xA1,0x3A
	.DB  0x6B,0x3A,0x36,0x3A,0x1,0x3A,0xCC,0x39
	.DB  0x98,0x39,0x64,0x39,0x30,0x39,0xFD,0x38
	.DB  0xCA,0x38,0x98,0x38,0x66,0x38,0x34,0x38
	.DB  0x3,0x38,0xD2,0x37,0xA1,0x37,0x71,0x37
	.DB  0x41,0x37,0x11,0x37,0xE2,0x36,0xB3,0x36
	.DB  0x84,0x36,0x56,0x36,0x28,0x36,0xFA,0x35
	.DB  0xCD,0x35,0xA0,0x35,0x73,0x35,0x46,0x35
	.DB  0x1A,0x35,0xEE,0x34,0xC3,0x34,0x97,0x34
	.DB  0x6C,0x34,0x42,0x34,0x17,0x34,0xED,0x33
	.DB  0xC3,0x33,0x99,0x33,0x70,0x33,0x47,0x33
	.DB  0x1E,0x33,0xF6,0x32,0xCD,0x32,0xA5,0x32
	.DB  0x7E,0x32,0x56,0x32,0x2F,0x32,0x8,0x32
	.DB  0xE1,0x31,0xBA,0x31,0x94,0x31,0x6E,0x31
	.DB  0x48,0x31,0x22,0x31,0xFD,0x30,0xD8,0x30
	.DB  0xB3,0x30,0x8E,0x30,0x6A,0x30,0x46,0x30
	.DB  0x22,0x30,0xFE,0x2F,0xDA,0x2F,0xB7,0x2F
	.DB  0x94,0x2F,0x71,0x2F,0x4E,0x2F,0x2C,0x2F
	.DB  0x9,0x2F,0xE7,0x2E,0xC5,0x2E,0xA3,0x2E
	.DB  0x82,0x2E,0x61,0x2E,0x3F,0x2E,0x1E,0x2E
	.DB  0xFE,0x2D,0xDD,0x2D,0xBD,0x2D,0x9D,0x2D
	.DB  0x7D,0x2D,0x5D,0x2D,0x3D,0x2D,0x1E,0x2D
	.DB  0xFE,0x2C,0xDF,0x2C,0xC0,0x2C,0xA1,0x2C
	.DB  0x83,0x2C,0x64,0x2C,0x46,0x2C,0x28,0x2C
	.DB  0xA,0x2C,0xEC,0x2B,0xCF,0x2B,0xB1,0x2B
	.DB  0x94,0x2B,0x77,0x2B,0x5A,0x2B,0x3D,0x2B
	.DB  0x21,0x2B,0x4,0x2B,0xE8,0x2A,0xCC,0x2A
	.DB  0xB0,0x2A,0x94,0x2A,0x78,0x2A,0x5C,0x2A
	.DB  0x41,0x2A,0x26,0x2A,0xB,0x2A,0xF0,0x29
	.DB  0xD5,0x29,0xBA,0x29,0x9F,0x29,0x85,0x29
	.DB  0x6B,0x29,0x50,0x29,0x36,0x29,0x1C,0x29
	.DB  0x3,0x29,0xE9,0x28,0xD0,0x28,0xB6,0x28
	.DB  0x9D,0x28,0x84,0x28,0x6B,0x28,0x52,0x28
	.DB  0x39,0x28,0x21,0x28,0x8,0x28,0xF0,0x27
	.DB  0xD7,0x27,0xBF,0x27,0xA7,0x27,0x8F,0x27
	.DB  0x78,0x27,0x60,0x27,0x48,0x27,0x31,0x27
	.DB  0x1A,0x27,0x3,0x27,0xEB,0x26,0xD4,0x26
	.DB  0xBE,0x26,0xA7,0x26,0x90,0x26,0x7A,0x26
	.DB  0x63,0x26,0x4D,0x26,0x37,0x26,0x21,0x26
	.DB  0xB,0x26,0xF5,0x25,0xDF,0x25,0xC9,0x25
	.DB  0xB4,0x25,0x9E,0x25,0x89,0x25,0x73,0x25
	.DB  0x5E,0x25,0x49,0x25,0x34,0x25,0x1F,0x25
	.DB  0xA,0x25,0xF6,0x24,0xE1,0x24,0xCD,0x24
	.DB  0xB8,0x24,0xA4,0x24,0x90,0x24,0x7B,0x24
	.DB  0x67,0x24,0x53,0x24,0x40,0x24,0x2C,0x24
	.DB  0x18,0x24,0x4,0x24,0xF1,0x23,0xDE,0x23
	.DB  0xCA,0x23,0xB7,0x23,0xA4,0x23,0x91,0x23
	.DB  0x7E,0x23,0x6B,0x23,0x58,0x23,0x45,0x23
	.DB  0x32,0x23,0x20,0x23,0xD,0x23,0xFB,0x22
	.DB  0xE9,0x22,0xD6,0x22,0xC4,0x22,0xB2,0x22
	.DB  0xA0,0x22,0x8E,0x22,0x7C,0x22,0x6A,0x22
	.DB  0x59,0x22,0x47,0x22,0x35,0x22,0x24,0x22
	.DB  0x12,0x22,0x1,0x22,0xF0,0x21,0xDF,0x21
	.DB  0xCD,0x21,0xBC,0x21,0xAB,0x21,0x9A,0x21
	.DB  0x8A,0x21,0x79,0x21,0x68,0x21,0x57,0x21
	.DB  0x47,0x21,0x36,0x21,0x26,0x21,0x15,0x21
	.DB  0x5,0x21,0xF5,0x20,0xE5,0x20,0xD5,0x20
	.DB  0xC5,0x20,0xB5,0x20,0xA5,0x20,0x95,0x20
	.DB  0x85,0x20,0x75,0x20,0x66,0x20,0x56,0x20
	.DB  0x47,0x20,0x37,0x20,0x28,0x20,0x18,0x20
	.DB  0x9,0x20,0xFA,0x1F,0xEB,0x1F,0xDB,0x1F
	.DB  0xCC,0x1F,0xBD,0x1F,0xAF,0x1F,0xA0,0x1F
	.DB  0x91,0x1F,0x82,0x1F,0x73,0x1F,0x65,0x1F
	.DB  0x56,0x1F,0x48,0x1F,0x39,0x1F,0x2B,0x1F
	.DB  0x1C,0x1F,0xE,0x1F,0x0,0x1F,0xF2,0x1E
	.DB  0xE3,0x1E,0xD5,0x1E,0xC7,0x1E,0xB9,0x1E
	.DB  0xAB,0x1E,0x9D,0x1E,0x90,0x1E,0x82,0x1E
	.DB  0x74,0x1E,0x66,0x1E,0x59,0x1E,0x4B,0x1E
	.DB  0x3E,0x1E,0x30,0x1E,0x23,0x1E,0x15,0x1E
	.DB  0x8,0x1E,0xFB,0x1D,0xEE,0x1D,0xE0,0x1D
	.DB  0xD3,0x1D,0xC6,0x1D,0xB9,0x1D,0xAC,0x1D
	.DB  0x9F,0x1D,0x92,0x1D,0x86,0x1D,0x79,0x1D
	.DB  0x6C,0x1D,0x5F,0x1D,0x53,0x1D,0x46,0x1D
	.DB  0x39,0x1D,0x2D,0x1D,0x20,0x1D,0x14,0x1D
	.DB  0x8,0x1D,0xFB,0x1C,0xEF,0x1C,0xE3,0x1C
	.DB  0xD7,0x1C,0xCA,0x1C,0xBE,0x1C,0xB2,0x1C
	.DB  0xA6,0x1C,0x9A,0x1C,0x8E,0x1C,0x82,0x1C
	.DB  0x76,0x1C,0x6B,0x1C,0x5F,0x1C,0x53,0x1C
	.DB  0x47,0x1C,0x3C,0x1C,0x30,0x1C,0x24,0x1C
	.DB  0x19,0x1C,0xD,0x1C,0x2,0x1C,0xF6,0x1B
	.DB  0xEB,0x1B,0xE0,0x1B,0xD4,0x1B,0xC9,0x1B
	.DB  0xBE,0x1B,0xB3,0x1B,0xA7,0x1B,0x9C,0x1B
	.DB  0x91,0x1B,0x86,0x1B,0x7B,0x1B,0x70,0x1B
	.DB  0x65,0x1B,0x5A,0x1B,0x50,0x1B,0x45,0x1B
	.DB  0x3A,0x1B,0x2F,0x1B,0x24,0x1B,0x1A,0x1B
	.DB  0xF,0x1B,0x4,0x1B,0xFA,0x1A,0xEF,0x1A
	.DB  0xE5,0x1A,0xDA,0x1A,0xD0,0x1A,0xC6,0x1A
	.DB  0xBB,0x1A,0xB1,0x1A,0xA6,0x1A,0x9C,0x1A
	.DB  0x92,0x1A,0x88,0x1A,0x7E,0x1A,0x73,0x1A
	.DB  0x69,0x1A,0x5F,0x1A,0x55,0x1A,0x4B,0x1A
	.DB  0x41,0x1A,0x37,0x1A,0x2D,0x1A,0x24,0x1A
	.DB  0x1A,0x1A,0x10,0x1A,0x6,0x1A,0xFC,0x19
	.DB  0xF3,0x19,0xE9,0x19,0xDF,0x19,0xD6,0x19
	.DB  0xCC,0x19,0xC2,0x19,0xB9,0x19,0xAF,0x19
	.DB  0xA6,0x19,0x9C,0x19,0x93,0x19,0x8A,0x19
	.DB  0x80,0x19,0x77,0x19,0x6E,0x19,0x64,0x19
	.DB  0x5B,0x19,0x52,0x19,0x49,0x19,0x3F,0x19
	.DB  0x36,0x19,0x2D,0x19,0x24,0x19,0x1B,0x19
	.DB  0x12,0x19,0x9,0x19,0x0,0x19,0xF7,0x18
	.DB  0xEE,0x18,0xE5,0x18,0xDC,0x18,0xD4,0x18
	.DB  0xCB,0x18,0xC2,0x18,0xB9,0x18,0xB0,0x18
	.DB  0xA8,0x18,0x9F,0x18,0x96,0x18,0x8E,0x18
	.DB  0x85,0x18,0x7D,0x18,0x74,0x18,0x6C,0x18
	.DB  0x63,0x18,0x5B,0x18,0x52,0x18,0x4A,0x18
	.DB  0x41,0x18,0x39,0x18,0x31,0x18,0x28,0x18
	.DB  0x20,0x18,0x18,0x18,0xF,0x18,0x7,0x18
	.DB  0xFF,0x17,0xF7,0x17,0xEF,0x17,0xE6,0x17
	.DB  0xDE,0x17,0xD6,0x17,0xCE,0x17,0xC6,0x17
	.DB  0xBE,0x17,0xB6,0x17,0xAE,0x17,0xA6,0x17
	.DB  0x9E,0x17,0x96,0x17,0x8F,0x17,0x87,0x17
	.DB  0x7F,0x17,0x77,0x17,0x6F,0x17,0x67,0x17
	.DB  0x60,0x17,0x58,0x17,0x50,0x17,0x49,0x17
	.DB  0x41,0x17,0x39,0x17,0x32,0x17,0x2A,0x17
	.DB  0x22,0x17,0x1B,0x17,0x13,0x17,0xC,0x17
	.DB  0x4,0x17,0xFD,0x16,0xF5,0x16,0xEE,0x16
	.DB  0xE7,0x16,0xDF,0x16,0xD8,0x16,0xD1,0x16
	.DB  0xC9,0x16,0xC2,0x16,0xBB,0x16,0xB3,0x16
	.DB  0xAC,0x16,0xA5,0x16,0x9E,0x16,0x96,0x16
	.DB  0x8F,0x16,0x88,0x16,0x81,0x16,0x7A,0x16
	.DB  0x73,0x16,0x6C,0x16,0x65,0x16,0x5E,0x16
	.DB  0x57,0x16,0x50,0x16,0x49,0x16,0x42,0x16
	.DB  0x3B,0x16,0x34,0x16,0x2D,0x16,0x26,0x16
	.DB  0x1F,0x16,0x18,0x16,0x11,0x16,0xB,0x16
	.DB  0x4,0x16,0xFD,0x15,0xF6,0x15,0xF0,0x15
	.DB  0xE9,0x15,0xE2,0x15,0xDB,0x15,0xD5,0x15
	.DB  0xCE,0x15,0xC8,0x15,0xC1,0x15,0xBA,0x15
	.DB  0xB4,0x15,0xAD,0x15,0xA7,0x15,0xA0,0x15
	.DB  0x9A,0x15,0x93,0x15,0x8D,0x15,0x86,0x15
	.DB  0x80,0x15,0x79,0x15,0x73,0x15,0x6C,0x15
	.DB  0x66,0x15,0x60,0x15,0x59,0x15,0x53,0x15
	.DB  0x4D,0x15,0x46,0x15,0x40,0x15,0x3A,0x15
	.DB  0x34,0x15,0x2D,0x15,0x27,0x15,0x21,0x15
	.DB  0x1B,0x15,0x15,0x15,0xE,0x15,0x8,0x15
	.DB  0x2,0x15,0xFC,0x14,0xF6,0x14,0xF0,0x14
	.DB  0xEA,0x14,0xE4,0x14,0xDE,0x14,0xD8,0x14
	.DB  0xD2,0x14,0xCC,0x14,0xC6,0x14,0xC0,0x14
	.DB  0xBA,0x14,0xB4,0x14,0xAE,0x14,0xA8,0x14
	.DB  0xA2,0x14,0x9C,0x14,0x96,0x14,0x91,0x14
	.DB  0x8B,0x14,0x85,0x14,0x7F,0x14,0x79,0x14
	.DB  0x74,0x14,0x6E,0x14,0x68,0x14,0x62,0x14
	.DB  0x5D,0x14,0x57,0x14,0x51,0x14,0x4C,0x14
	.DB  0x46,0x14,0x40,0x14,0x3B,0x14,0x35,0x14
	.DB  0x2F,0x14,0x2A,0x14,0x24,0x14,0x1F,0x14
	.DB  0x19,0x14,0x14,0x14,0xE,0x14,0x8,0x14
	.DB  0x3,0x14,0xFD,0x13,0xF8,0x13,0xF3,0x13
	.DB  0xED,0x13,0xE8,0x13,0xE2,0x13,0xDD,0x13
	.DB  0xD7,0x13,0xD2,0x13,0xCD,0x13,0xC7,0x13
	.DB  0xC2,0x13,0xBD,0x13,0xB7,0x13,0xB2,0x13
	.DB  0xAD,0x13,0xA7,0x13,0xA2,0x13,0x9D,0x13
	.DB  0x98,0x13,0x92,0x13,0x8D,0x13,0x88,0x13
	.DB  0x83,0x13,0x7E,0x13,0x78,0x13,0x73,0x13
	.DB  0x6E,0x13,0x69,0x13,0x64,0x13,0x5F,0x13
	.DB  0x5A,0x13,0x55,0x13,0x4F,0x13,0x4A,0x13
	.DB  0x45,0x13,0x40,0x13,0x3B,0x13,0x36,0x13
	.DB  0x31,0x13,0x2C,0x13,0x27,0x13,0x22,0x13
	.DB  0x1D,0x13,0x18,0x13,0x13,0x13,0xE,0x13
	.DB  0xA,0x13,0x5,0x13,0x0,0x13,0xFB,0x12
	.DB  0xF6,0x12,0xF1,0x12,0xEC,0x12,0xE7,0x12
	.DB  0xE3,0x12,0xDE,0x12,0xD9,0x12,0xD4,0x12
	.DB  0xCF,0x12,0xCB,0x12,0xC6,0x12,0xC1,0x12
	.DB  0xBC,0x12,0xB8,0x12,0xB3,0x12,0xAE,0x12
	.DB  0xA9,0x12,0xA5,0x12,0xA0,0x12,0x9B,0x12
	.DB  0x97,0x12,0x92,0x12,0x8D,0x12,0x89,0x12
	.DB  0x84,0x12,0x80,0x12,0x7B,0x12,0x76,0x12
	.DB  0x72,0x12,0x6D,0x12,0x69,0x12,0x64,0x12
	.DB  0x60,0x12,0x5B,0x12,0x57,0x12,0x52,0x12
	.DB  0x4D,0x12,0x49,0x12,0x45,0x12,0x40,0x12
	.DB  0x3C,0x12,0x37,0x12,0x33,0x12,0x2E,0x12
	.DB  0x2A,0x12,0x25,0x12,0x21,0x12,0x1D,0x12
	.DB  0x18,0x12,0x14,0x12,0xF,0x12,0xB,0x12
	.DB  0x7,0x12,0x2,0x12,0xFE,0x11,0xFA,0x11
	.DB  0xF5,0x11,0xF1,0x11,0xED,0x11,0xE9,0x11
	.DB  0xE4,0x11,0xE0,0x11,0xDC,0x11,0xD7,0x11
	.DB  0xD3,0x11,0xCF,0x11,0xCB,0x11,0xC7,0x11
	.DB  0xC2,0x11,0xBE,0x11,0xBA,0x11,0xB6,0x11
	.DB  0xB2,0x11,0xAD,0x11,0xA9,0x11,0xA5,0x11
	.DB  0xA1,0x11,0x9D,0x11,0x99,0x11,0x95,0x11
	.DB  0x91,0x11,0x8C,0x11,0x88,0x11,0x84,0x11
	.DB  0x80,0x11,0x7C,0x11,0x78,0x11,0x74,0x11
	.DB  0x70,0x11,0x6C,0x11,0x68,0x11,0x64,0x11
	.DB  0x60,0x11,0x5C,0x11,0x58,0x11,0x54,0x11
	.DB  0x50,0x11,0x4C,0x11,0x48,0x11,0x44,0x11
	.DB  0x40,0x11,0x3C,0x11,0x38,0x11,0x34,0x11
	.DB  0x31,0x11,0x2D,0x11,0x29,0x11,0x25,0x11
	.DB  0x21,0x11,0x1D,0x11,0x19,0x11,0x15,0x11
	.DB  0x12,0x11,0xE,0x11,0xA,0x11,0x6,0x11
	.DB  0x2,0x11,0xFF,0x10,0xFB,0x10,0xF7,0x10
	.DB  0xF3,0x10,0xEF,0x10,0xEC,0x10,0xE8,0x10
	.DB  0xE4,0x10,0xE0,0x10,0xDD,0x10,0xD9,0x10
	.DB  0xD5,0x10,0xD1,0x10,0xCE,0x10,0xCA,0x10
	.DB  0xC6,0x10,0xC3,0x10,0xBF,0x10,0xBB,0x10
	.DB  0xB8,0x10,0xB4,0x10,0xB0,0x10,0xAD,0x10
	.DB  0xA9,0x10,0xA5,0x10,0xA2,0x10,0x9E,0x10
	.DB  0x9B,0x10,0x97,0x10,0x93,0x10,0x90,0x10
	.DB  0x8C,0x10,0x89,0x10,0x85,0x10,0x82,0x10
	.DB  0x7E,0x10,0x7A,0x10,0x77,0x10,0x73,0x10
	.DB  0x70,0x10,0x6C,0x10,0x69,0x10,0x65,0x10
	.DB  0x62,0x10,0x5E,0x10,0x5B,0x10,0x57,0x10
	.DB  0x54,0x10,0x50,0x10,0x4D,0x10,0x49,0x10
	.DB  0x46,0x10,0x43,0x10,0x3F,0x10,0x3C,0x10
	.DB  0x38,0x10,0x35,0x10,0x31,0x10,0x2E,0x10
	.DB  0x2B,0x10,0x27,0x10,0x24,0x10,0x21,0x10
	.DB  0x1D,0x10,0x1A,0x10,0x16,0x10,0x13,0x10
	.DB  0x10,0x10,0xC,0x10,0x9,0x10,0x6,0x10
	.DB  0x2,0x10,0xFF,0xF,0xFC,0xF,0xF9,0xF
	.DB  0xF5,0xF,0xF2,0xF,0xEF,0xF,0xEB,0xF
	.DB  0xE8,0xF,0xE5,0xF,0xE2,0xF,0xDE,0xF
	.DB  0xDB,0xF,0xD8,0xF,0xD5,0xF,0xD1,0xF
	.DB  0xCE,0xF,0xCB,0xF,0xC8,0xF,0xC5,0xF
	.DB  0xC1,0xF,0xBE,0xF,0xBB,0xF,0xB8,0xF
	.DB  0xB5,0xF,0xB1,0xF,0xAE,0xF,0xAB,0xF
	.DB  0xA8,0xF,0xA5,0xF,0xA2,0xF,0x9F,0xF
	.DB  0x9B,0xF,0x98,0xF,0x95,0xF,0x92,0xF
	.DB  0x8F,0xF,0x8C,0xF,0x89,0xF,0x86,0xF
	.DB  0x83,0xF,0x80,0xF,0x7C,0xF,0x79,0xF
	.DB  0x76,0xF,0x73,0xF,0x70,0xF,0x6D,0xF
	.DB  0x6A,0xF,0x67,0xF,0x64,0xF,0x61,0xF
	.DB  0x5E,0xF,0x5B,0xF,0x58,0xF,0x55,0xF
	.DB  0x52,0xF,0x4F,0xF,0x4C,0xF,0x49,0xF
	.DB  0x46,0xF,0x43,0xF,0x40,0xF,0x3D,0xF
	.DB  0x3A,0xF,0x37,0xF,0x34,0xF,0x31,0xF
	.DB  0x2E,0xF,0x2C,0xF,0x29,0xF,0x26,0xF
	.DB  0x23,0xF,0x20,0xF,0x1D,0xF,0x1A,0xF
	.DB  0x17,0xF,0x14,0xF,0x11,0xF,0xF,0xF
	.DB  0xC,0xF,0x9,0xF,0x6,0xF,0x3,0xF
	.DB  0x0,0xF,0xFD,0xE,0xFB,0xE,0xF8,0xE
	.DB  0xF5,0xE,0xF2,0xE,0xEF,0xE,0xEC,0xE
	.DB  0xEA,0xE,0xE7,0xE,0xE4,0xE,0xE1,0xE
	.DB  0xDE,0xE,0xDC,0xE,0xD9,0xE,0xD6,0xE
	.DB  0xD3,0xE,0xD0,0xE,0xCE,0xE,0xCB,0xE
	.DB  0xC8,0xE,0xC5,0xE,0xC3,0xE,0xC0,0xE
	.DB  0xBD,0xE,0xBA,0xE,0xB8,0xE,0xB5,0xE
	.DB  0xB2,0xE,0xB0,0xE,0xAD,0xE,0xAA,0xE
	.DB  0xA7,0xE,0xA5,0xE,0xA2,0xE,0x9F,0xE
	.DB  0x9D,0xE,0x9A,0xE,0x97,0xE,0x95,0xE
	.DB  0x92,0xE,0x8F,0xE,0x8D,0xE,0x8A,0xE
	.DB  0x87,0xE,0x85,0xE,0x82,0xE,0x7F,0xE
	.DB  0x7D,0xE,0x7A,0xE,0x78,0xE,0x75,0xE
	.DB  0x72,0xE,0x70,0xE,0x6D,0xE,0x6B,0xE
	.DB  0x68,0xE,0x65,0xE,0x63,0xE,0x60,0xE
	.DB  0x5E,0xE,0x5B,0xE,0x58,0xE,0x56,0xE
	.DB  0x53,0xE,0x51,0xE,0x4E,0xE,0x4C,0xE
	.DB  0x49,0xE,0x47,0xE,0x44,0xE,0x42,0xE
	.DB  0x3F,0xE,0x3D,0xE,0x3A,0xE,0x37,0xE
	.DB  0x35,0xE,0x32,0xE,0x30,0xE,0x2D,0xE
	.DB  0x2B,0xE,0x28,0xE,0x26,0xE,0x24,0xE
	.DB  0x21,0xE,0x1F,0xE,0x1C,0xE,0x1A,0xE
	.DB  0x17,0xE,0x15,0xE,0x12,0xE,0x10,0xE
	.DB  0xD,0xE,0xB,0xE,0x8,0xE,0x6,0xE
	.DB  0x4,0xE,0x1,0xE,0xFF,0xD,0xFC,0xD
	.DB  0xFA,0xD,0xF7,0xD,0xF5,0xD,0xF3,0xD
	.DB  0xF0,0xD,0xEE,0xD,0xEB,0xD,0xE9,0xD
	.DB  0xE7,0xD,0xE4,0xD,0xE2,0xD,0xE0,0xD
	.DB  0xDD,0xD,0xDB,0xD,0xD8,0xD,0xD6,0xD
	.DB  0xD4,0xD,0xD1,0xD,0xCF,0xD,0xCD,0xD
	.DB  0xCA,0xD,0xC8,0xD,0xC6,0xD,0xC3,0xD
	.DB  0xC1,0xD,0xBF,0xD,0xBC,0xD,0xBA,0xD
	.DB  0xB8,0xD,0xB6,0xD,0xB3,0xD,0xB1,0xD
	.DB  0xAF,0xD,0xAC,0xD,0xAA,0xD,0xA8,0xD
	.DB  0xA5,0xD,0xA3,0xD,0xA1,0xD,0x9F,0xD
	.DB  0x9C,0xD,0x9A,0xD,0x98,0xD,0x96,0xD
	.DB  0x93,0xD,0x91,0xD,0x8F,0xD,0x8D,0xD
	.DB  0x8A,0xD,0x88,0xD,0x86,0xD,0x84,0xD
	.DB  0x81,0xD,0x7F,0xD,0x7D,0xD,0x7B,0xD
	.DB  0x79,0xD,0x76,0xD,0x74,0xD,0x72,0xD
	.DB  0x70,0xD,0x6E,0xD,0x6B,0xD,0x69,0xD
	.DB  0x67,0xD,0x65,0xD,0x63,0xD,0x60,0xD
	.DB  0x5E,0xD,0x5C,0xD,0x5A,0xD,0x58,0xD
	.DB  0x56,0xD,0x53,0xD,0x51,0xD,0x4F,0xD
	.DB  0x4D,0xD,0x4B,0xD,0x49,0xD,0x47,0xD
	.DB  0x44,0xD,0x42,0xD,0x40,0xD,0x3E,0xD
	.DB  0x3C,0xD,0x3A,0xD,0x38,0xD,0x36,0xD
	.DB  0x33,0xD,0x31,0xD,0x2F,0xD,0x2D,0xD
	.DB  0x2B,0xD,0x29,0xD,0x27,0xD,0x25,0xD
	.DB  0x23,0xD,0x21,0xD,0x1F,0xD,0x1D,0xD
	.DB  0x1A,0xD,0x18,0xD,0x16,0xD,0x14,0xD
	.DB  0x12,0xD,0x10,0xD,0xE,0xD,0xC,0xD
	.DB  0xA,0xD,0x8,0xD,0x6,0xD,0x4,0xD
	.DB  0x2,0xD,0x0,0xD,0xFE,0xC,0xFC,0xC
	.DB  0xFA,0xC,0xF8,0xC,0xF6,0xC,0xF4,0xC
	.DB  0xF2,0xC,0xF0,0xC,0xEE,0xC,0xEC,0xC
	.DB  0xEA,0xC,0xE8,0xC,0xE6,0xC,0xE4,0xC
	.DB  0xE2,0xC,0xE0,0xC,0xDE,0xC,0xDC,0xC
	.DB  0xDA,0xC,0xD8,0xC,0xD6,0xC,0xD4,0xC
	.DB  0xD2,0xC,0xD0,0xC,0xCE,0xC,0xCC,0xC
	.DB  0xCA,0xC,0xC8,0xC,0xC6,0xC,0xC4,0xC
	.DB  0xC2,0xC,0xC0,0xC,0xBE,0xC,0xBC,0xC
	.DB  0xBB,0xC,0xB9,0xC,0xB7,0xC,0xB5,0xC
	.DB  0xB3,0xC,0xB1,0xC,0xAF,0xC,0xAD,0xC
	.DB  0xAB,0xC,0xA9,0xC,0xA7,0xC,0xA6,0xC
	.DB  0xA4,0xC,0xA2,0xC,0xA0,0xC,0x9E,0xC
	.DB  0x9C,0xC,0x9A,0xC,0x98,0xC,0x96,0xC
	.DB  0x95,0xC,0x93,0xC,0x91,0xC,0x8F,0xC
	.DB  0x8D,0xC,0x8B,0xC,0x89,0xC,0x87,0xC
	.DB  0x86,0xC,0x84,0xC,0x82,0xC,0x80,0xC
	.DB  0x7E,0xC,0x7C,0xC,0x7B,0xC,0x79,0xC
	.DB  0x77,0xC,0x75,0xC,0x73,0xC,0x71,0xC
	.DB  0x70,0xC,0x6E,0xC,0x6C,0xC,0x6A,0xC
	.DB  0x68,0xC,0x66,0xC,0x65,0xC,0x63,0xC
	.DB  0x61,0xC,0x5F,0xC,0x5D,0xC,0x5C,0xC
	.DB  0x5A,0xC,0x58,0xC,0x56,0xC,0x55,0xC
	.DB  0x53,0xC,0x51,0xC,0x4F,0xC,0x4D,0xC
	.DB  0x4C,0xC,0x4A,0xC,0x48,0xC,0x46,0xC
	.DB  0x45,0xC,0x43,0xC,0x41,0xC,0x3F,0xC
	.DB  0x3E,0xC,0x3C,0xC,0x3A,0xC,0x38,0xC
	.DB  0x37,0xC,0x35,0xC,0x33,0xC,0x31,0xC
	.DB  0x30,0xC,0x2E,0xC,0x2C,0xC,0x2A,0xC
	.DB  0x29,0xC,0x27,0xC,0x25,0xC,0x23,0xC
	.DB  0x22,0xC,0x20,0xC,0x1E,0xC,0x1D,0xC
	.DB  0x1B,0xC,0x19,0xC,0x18,0xC,0x16,0xC
	.DB  0x14,0xC,0x12,0xC,0x11,0xC,0xF,0xC
	.DB  0xD,0xC,0xC,0xC,0xA,0xC,0x8,0xC
	.DB  0x7,0xC,0x5,0xC,0x3,0xC,0x2,0xC
	.DB  0x0,0xC,0xFE,0xB,0xFD,0xB,0xFB,0xB
	.DB  0xF9,0xB,0xF8,0xB,0xF6,0xB,0xF4,0xB
	.DB  0xF3,0xB,0xF1,0xB,0xEF,0xB,0xEE,0xB
	.DB  0xEC,0xB,0xEA,0xB,0xE9,0xB,0xE7,0xB
	.DB  0xE6,0xB,0xE4,0xB,0xE2,0xB,0xE1,0xB
	.DB  0xDF,0xB,0xDD,0xB,0xDC,0xB,0xDA,0xB
	.DB  0xD9,0xB,0xD7,0xB,0xD5,0xB,0xD4,0xB
	.DB  0xD2,0xB,0xD0,0xB,0xCF,0xB,0xCD,0xB
	.DB  0xCC,0xB,0xCA,0xB,0xC8,0xB,0xC7,0xB
	.DB  0xC5,0xB,0xC4,0xB,0xC2,0xB,0xC0,0xB
	.DB  0xBF,0xB,0xBD,0xB,0xBC,0xB,0xBA,0xB
	.DB  0xB9,0xB,0xB7,0xB,0xB5,0xB,0xB4,0xB
	.DB  0xB2,0xB,0xB1,0xB,0xAF,0xB,0xAE,0xB
	.DB  0xAC,0xB,0xAB,0xB,0xA9,0xB,0xA7,0xB
	.DB  0xA6,0xB,0xA4,0xB,0xA3,0xB,0xA1,0xB
	.DB  0xA0,0xB,0x9E,0xB,0x9D,0xB,0x9B,0xB
	.DB  0x99,0xB,0x98,0xB,0x96,0xB,0x95,0xB
	.DB  0x93,0xB,0x92,0xB,0x90,0xB,0x8F,0xB
	.DB  0x8D,0xB,0x8C,0xB,0x8A,0xB,0x89,0xB
	.DB  0x87,0xB,0x86,0xB,0x84,0xB,0x83,0xB
	.DB  0x81,0xB,0x80,0xB,0x7E,0xB,0x7D,0xB
	.DB  0x7B,0xB,0x7A,0xB,0x78,0xB,0x77,0xB
	.DB  0x75,0xB,0x74,0xB,0x72,0xB,0x71,0xB
	.DB  0x6F,0xB,0x6E,0xB,0x6C,0xB,0x6B,0xB
	.DB  0x69,0xB,0x68,0xB,0x66,0xB,0x65,0xB
	.DB  0x64,0xB,0x62,0xB,0x61,0xB,0x5F,0xB
	.DB  0x5E,0xB,0x5C,0xB,0x5B,0xB,0x59,0xB
	.DB  0x58,0xB,0x56,0xB,0x55,0xB,0x53,0xB
	.DB  0x52,0xB,0x51,0xB,0x4F,0xB,0x4E,0xB
	.DB  0x4C,0xB,0x4B,0xB,0x49,0xB,0x48,0xB
	.DB  0x47,0xB,0x45,0xB,0x44,0xB,0x42,0xB
	.DB  0x41,0xB,0x3F,0xB,0x3E,0xB,0x3D,0xB
	.DB  0x3B,0xB,0x3A,0xB,0x38,0xB,0x37,0xB
	.DB  0x36,0xB,0x34,0xB,0x33,0xB,0x31,0xB
	.DB  0x30,0xB,0x2F,0xB,0x2D,0xB,0x2C,0xB
	.DB  0x2A,0xB,0x29,0xB,0x28,0xB,0x26,0xB
	.DB  0x25,0xB,0x23,0xB,0x22,0xB,0x21,0xB
	.DB  0x1F,0xB,0x1E,0xB,0x1C,0xB,0x1B,0xB
	.DB  0x1A,0xB,0x18,0xB,0x17,0xB,0x16,0xB
	.DB  0x14,0xB,0x13,0xB,0x11,0xB,0x10,0xB
	.DB  0xF,0xB,0xD,0xB,0xC,0xB,0xB,0xB
	.DB  0x9,0xB,0x8,0xB,0x7,0xB,0x5,0xB
	.DB  0x4,0xB,0x3,0xB,0x1,0xB,0x0,0xB
	.DB  0xFF,0xA,0xFD,0xA,0xFC,0xA,0xFB,0xA
	.DB  0xF9,0xA,0xF8,0xA,0xF7,0xA,0xF5,0xA
	.DB  0xF4,0xA,0xF3,0xA,0xF1,0xA,0xF0,0xA
	.DB  0xEF,0xA,0xED,0xA,0xEC,0xA,0xEB,0xA
	.DB  0xE9,0xA,0xE8,0xA,0xE7,0xA,0xE5,0xA
	.DB  0xE4,0xA,0xE3,0xA,0xE1,0xA,0xE0,0xA
	.DB  0xDF,0xA,0xDE,0xA,0xDC,0xA,0xDB,0xA
	.DB  0xDA,0xA,0xD8,0xA,0xD7,0xA,0xD6,0xA
	.DB  0xD4,0xA,0xD3,0xA,0xD2,0xA,0xD1,0xA
	.DB  0xCF,0xA,0xCE,0xA,0xCD,0xA,0xCB,0xA
	.DB  0xCA,0xA,0xC9,0xA,0xC8,0xA,0xC6,0xA
	.DB  0xC5,0xA,0xC4,0xA,0xC3,0xA,0xC1,0xA
	.DB  0xC0,0xA,0xBF,0xA,0xBD,0xA,0xBC,0xA
	.DB  0xBB,0xA,0xBA,0xA,0xB8,0xA,0xB7,0xA
	.DB  0xB6,0xA,0xB5,0xA,0xB3,0xA,0xB2,0xA
	.DB  0xB1,0xA,0xB0,0xA,0xAE,0xA,0xAD,0xA
	.DB  0xAC,0xA,0xAB,0xA,0xA9,0xA,0xA8,0xA
	.DB  0xA7,0xA,0xA6,0xA,0xA5,0xA,0xA3,0xA
	.DB  0xA2,0xA,0xA1,0xA,0xA0,0xA,0x9E,0xA
	.DB  0x9D,0xA,0x9C,0xA,0x9B,0xA,0x99,0xA
	.DB  0x98,0xA,0x97,0xA,0x96,0xA,0x95,0xA
	.DB  0x93,0xA,0x92,0xA,0x91,0xA,0x90,0xA
	.DB  0x8F,0xA,0x8D,0xA,0x8C,0xA,0x8B,0xA
	.DB  0x8A,0xA,0x88,0xA,0x87,0xA,0x86,0xA
	.DB  0x85,0xA,0x84,0xA,0x83,0xA,0x81,0xA
	.DB  0x80,0xA,0x7F,0xA,0x7E,0xA,0x7D,0xA
	.DB  0x7B,0xA,0x7A,0xA,0x79,0xA,0x78,0xA
	.DB  0x77,0xA,0x75,0xA,0x74,0xA,0x73,0xA
	.DB  0x72,0xA,0x71,0xA,0x70,0xA,0x6E,0xA
	.DB  0x6D,0xA,0x6C,0xA,0x6B,0xA,0x6A,0xA
	.DB  0x69,0xA,0x67,0xA,0x66,0xA,0x65,0xA
	.DB  0x64,0xA,0x63,0xA,0x62,0xA,0x60,0xA
	.DB  0x5F,0xA,0x5E,0xA,0x5D,0xA,0x5C,0xA
	.DB  0x5B,0xA,0x5A,0xA,0x58,0xA,0x57,0xA
	.DB  0x56,0xA,0x55,0xA,0x54,0xA,0x53,0xA
	.DB  0x52,0xA,0x50,0xA,0x4F,0xA,0x4E,0xA
	.DB  0x4D,0xA,0x4C,0xA,0x4B,0xA,0x4A,0xA
	.DB  0x48,0xA,0x47,0xA,0x46,0xA,0x45,0xA
	.DB  0x44,0xA,0x43,0xA,0x42,0xA,0x41,0xA
	.DB  0x3F,0xA,0x3E,0xA,0x3D,0xA,0x3C,0xA
	.DB  0x3B,0xA,0x3A,0xA,0x39,0xA,0x38,0xA
	.DB  0x37,0xA,0x35,0xA,0x34,0xA,0x33,0xA
	.DB  0x32,0xA,0x31,0xA,0x30,0xA,0x2F,0xA
	.DB  0x2E,0xA,0x2D,0xA,0x2B,0xA,0x2A,0xA
	.DB  0x29,0xA,0x28,0xA,0x27,0xA,0x26,0xA
	.DB  0x25,0xA,0x24,0xA,0x23,0xA,0x22,0xA
	.DB  0x21,0xA,0x1F,0xA,0x1E,0xA,0x1D,0xA
	.DB  0x1C,0xA,0x1B,0xA,0x1A,0xA,0x19,0xA
	.DB  0x18,0xA,0x17,0xA,0x16,0xA,0x15,0xA
	.DB  0x14,0xA,0x13,0xA,0x12,0xA,0x10,0xA
	.DB  0xF,0xA,0xE,0xA,0xD,0xA,0xC,0xA
	.DB  0xB,0xA,0xA,0xA,0x9,0xA,0x8,0xA
	.DB  0x7,0xA,0x6,0xA,0x5,0xA,0x4,0xA
	.DB  0x3,0xA,0x2,0xA,0x1,0xA,0x0,0xA
	.DB  0xFE,0x9,0xFD,0x9,0xFC,0x9,0xFB,0x9
	.DB  0xFA,0x9,0xF9,0x9,0xF8,0x9,0xF7,0x9
	.DB  0xF6,0x9,0xF5,0x9,0xF4,0x9,0xF3,0x9
	.DB  0xF2,0x9,0xF1,0x9,0xF0,0x9,0xEF,0x9
	.DB  0xEE,0x9,0xED,0x9,0xEC,0x9,0xEB,0x9
	.DB  0xEA,0x9,0xE9,0x9,0xE8,0x9,0xE7,0x9
	.DB  0xE6,0x9,0xE5,0x9,0xE4,0x9,0xE3,0x9
	.DB  0xE2,0x9,0xE1,0x9,0xE0,0x9,0xDF,0x9
	.DB  0xDE,0x9,0xDC,0x9,0xDB,0x9,0xDA,0x9
	.DB  0xD9,0x9,0xD8,0x9,0xD7,0x9,0xD6,0x9
	.DB  0xD5,0x9,0xD4,0x9,0xD3,0x9,0xD2,0x9
	.DB  0xD1,0x9,0xD0,0x9,0xCF,0x9,0xCE,0x9
	.DB  0xCD,0x9,0xCC,0x9,0xCB,0x9,0xCA,0x9
	.DB  0xC9,0x9,0xC8,0x9,0xC7,0x9,0xC6,0x9
	.DB  0xC6,0x9,0xC5,0x9,0xC4,0x9,0xC3,0x9
	.DB  0xC2,0x9,0xC1,0x9,0xC0,0x9,0xBF,0x9
	.DB  0xBE,0x9,0xBD,0x9,0xBC,0x9,0xBB,0x9
	.DB  0xBA,0x9,0xB9,0x9,0xB8,0x9,0xB7,0x9
	.DB  0xB6,0x9,0xB5,0x9,0xB4,0x9,0xB3,0x9
	.DB  0xB2,0x9,0xB1,0x9,0xB0,0x9,0xAF,0x9
	.DB  0xAE,0x9,0xAD,0x9,0xAC,0x9,0xAB,0x9
	.DB  0xAA,0x9,0xA9,0x9,0xA8,0x9,0xA7,0x9
	.DB  0xA6,0x9,0xA5,0x9,0xA5,0x9,0xA4,0x9
	.DB  0xA3,0x9,0xA2,0x9,0xA1,0x9,0xA0,0x9
	.DB  0x9F,0x9,0x9E,0x9,0x9D,0x9,0x9C,0x9
	.DB  0x9B,0x9,0x9A,0x9,0x99,0x9,0x98,0x9
	.DB  0x97,0x9,0x96,0x9,0x95,0x9,0x94,0x9
	.DB  0x94,0x9,0x93,0x9,0x92,0x9,0x91,0x9
	.DB  0x90,0x9,0x8F,0x9,0x8E,0x9,0x8D,0x9
	.DB  0x8C,0x9,0x8B,0x9,0x8A,0x9,0x89,0x9
	.DB  0x88,0x9,0x87,0x9,0x87,0x9,0x86,0x9
	.DB  0x85,0x9,0x84,0x9,0x83,0x9,0x82,0x9
	.DB  0x81,0x9,0x80,0x9,0x7F,0x9,0x7E,0x9
	.DB  0x7D,0x9,0x7C,0x9,0x7C,0x9,0x7B,0x9
	.DB  0x7A,0x9,0x79,0x9,0x78,0x9,0x77,0x9
	.DB  0x76,0x9,0x75,0x9,0x74,0x9,0x73,0x9
	.DB  0x72,0x9,0x72,0x9,0x71,0x9,0x70,0x9
	.DB  0x6F,0x9,0x6E,0x9,0x6D,0x9,0x6C,0x9
	.DB  0x6B,0x9,0x6A,0x9,0x6A,0x9,0x69,0x9
	.DB  0x68,0x9,0x67,0x9,0x66,0x9,0x65,0x9
	.DB  0x64,0x9,0x63,0x9,0x62,0x9,0x62,0x9
	.DB  0x61,0x9,0x60,0x9,0x5F,0x9,0x5E,0x9
	.DB  0x5D,0x9,0x5C,0x9,0x5B,0x9,0x5A,0x9
	.DB  0x5A,0x9,0x59,0x9,0x58,0x9,0x57,0x9
	.DB  0x56,0x9,0x55,0x9,0x54,0x9,0x53,0x9
	.DB  0x53,0x9,0x52,0x9,0x51,0x9,0x50,0x9
	.DB  0x4F,0x9,0x4E,0x9,0x4D,0x9,0x4D,0x9
	.DB  0x4C,0x9,0x4B,0x9,0x4A,0x9,0x49,0x9
	.DB  0x48,0x9,0x47,0x9,0x47,0x9,0x46,0x9
	.DB  0x45,0x9,0x44,0x9,0x43,0x9,0x42,0x9
	.DB  0x41,0x9,0x41,0x9,0x40,0x9,0x3F,0x9
	.DB  0x3E,0x9,0x3D,0x9,0x3C,0x9,0x3B,0x9
	.DB  0x3B,0x9,0x3A,0x9,0x39,0x9,0x38,0x9
	.DB  0x37,0x9,0x36,0x9,0x36,0x9,0x35,0x9
	.DB  0x34,0x9,0x33,0x9,0x32,0x9,0x31,0x9
	.DB  0x30,0x9,0x30,0x9,0x2F,0x9,0x2E,0x9
	.DB  0x2D,0x9,0x2C,0x9,0x2B,0x9,0x2B,0x9
	.DB  0x2A,0x9,0x29,0x9,0x28,0x9,0x27,0x9
	.DB  0x27,0x9,0x26,0x9,0x25,0x9,0x24,0x9
	.DB  0x23,0x9,0x22,0x9,0x22,0x9,0x21,0x9
	.DB  0x20,0x9,0x1F,0x9,0x1E,0x9,0x1D,0x9
	.DB  0x1D,0x9,0x1C,0x9,0x1B,0x9,0x1A,0x9
	.DB  0x19,0x9,0x19,0x9,0x18,0x9,0x17,0x9
	.DB  0x16,0x9,0x15,0x9,0x15,0x9,0x14,0x9
	.DB  0x13,0x9,0x12,0x9,0x11,0x9,0x10,0x9
	.DB  0x10,0x9,0xF,0x9,0xE,0x9,0xD,0x9
	.DB  0xC,0x9,0xC,0x9,0xB,0x9,0xA,0x9
	.DB  0x9,0x9,0x8,0x9,0x8,0x9,0x7,0x9
	.DB  0x6,0x9,0x5,0x9,0x4,0x9,0x4,0x9
	.DB  0x3,0x9,0x2,0x9,0x1,0x9,0x1,0x9
	.DB  0x0,0x9,0xFF,0x8,0xFE,0x8,0xFD,0x8
	.DB  0xFD,0x8,0xFC,0x8,0xFB,0x8,0xFA,0x8
	.DB  0xF9,0x8,0xF9,0x8,0xF8,0x8,0xF7,0x8
	.DB  0xF6,0x8,0xF6,0x8,0xF5,0x8,0xF4,0x8
	.DB  0xF3,0x8,0xF2,0x8,0xF2,0x8,0xF1,0x8
	.DB  0xF0,0x8,0xEF,0x8,0xEF,0x8,0xEE,0x8
	.DB  0xED,0x8,0xEC,0x8,0xEB,0x8,0xEB,0x8
	.DB  0xEA,0x8,0xE9,0x8,0xE8,0x8,0xE8,0x8
	.DB  0xE7,0x8,0xE6,0x8,0xE5,0x8,0xE5,0x8
	.DB  0xE4,0x8,0xE3,0x8,0xE2,0x8,0xE2,0x8
	.DB  0xE1,0x8,0xE0,0x8,0xDF,0x8,0xDE,0x8
	.DB  0xDE,0x8,0xDD,0x8,0xDC,0x8,0xDB,0x8
	.DB  0xDB,0x8,0xDA,0x8,0xD9,0x8,0xD8,0x8
	.DB  0xD8,0x8,0xD7,0x8,0xD6,0x8,0xD5,0x8
	.DB  0xD5,0x8,0xD4,0x8,0xD3,0x8,0xD2,0x8
	.DB  0xD2,0x8,0xD1,0x8,0xD0,0x8,0xCF,0x8
	.DB  0xCF,0x8,0xCE,0x8,0xCD,0x8,0xCC,0x8
	.DB  0xCC,0x8,0xCB,0x8,0xCA,0x8,0xCA,0x8
	.DB  0xC9,0x8,0xC8,0x8,0xC7,0x8,0xC7,0x8
	.DB  0xC6,0x8,0xC5,0x8,0xC4,0x8,0xC4,0x8
	.DB  0xC3,0x8,0xC2,0x8,0xC1,0x8,0xC1,0x8
	.DB  0xC0,0x8,0xBF,0x8,0xBF,0x8,0xBE,0x8
	.DB  0xBD,0x8,0xBC,0x8,0xBC,0x8,0xBB,0x8
	.DB  0xBA,0x8,0xB9,0x8,0xB9,0x8,0xB8,0x8
	.DB  0xB7,0x8,0xB7,0x8,0xB6,0x8,0xB5,0x8
	.DB  0xB4,0x8,0xB4,0x8,0xB3,0x8,0xB2,0x8
	.DB  0xB2,0x8,0xB1,0x8,0xB0,0x8,0xAF,0x8
	.DB  0xAF,0x8,0xAE,0x8,0xAD,0x8,0xAD,0x8
	.DB  0xAC,0x8,0xAB,0x8,0xAA,0x8,0xAA,0x8
	.DB  0xA9,0x8,0xA8,0x8,0xA8,0x8,0xA7,0x8
	.DB  0xA6,0x8,0xA5,0x8,0xA5,0x8,0xA4,0x8
	.DB  0xA3,0x8,0xA3,0x8,0xA2,0x8,0xA1,0x8
	.DB  0xA1,0x8,0xA0,0x8,0x9F,0x8,0x9E,0x8
	.DB  0x9E,0x8,0x9D,0x8,0x9C,0x8,0x9C,0x8
	.DB  0x9B,0x8,0x9A,0x8,0x9A,0x8,0x99,0x8
	.DB  0x98,0x8,0x97,0x8,0x97,0x8,0x96,0x8
	.DB  0x95,0x8,0x95,0x8,0x94,0x8,0x93,0x8
	.DB  0x93,0x8,0x92,0x8,0x91,0x8,0x91,0x8
	.DB  0x90,0x8,0x8F,0x8,0x8E,0x8,0x8E,0x8
	.DB  0x8D,0x8,0x8C,0x8,0x8C,0x8,0x8B,0x8
	.DB  0x8A,0x8,0x8A,0x8,0x89,0x8,0x88,0x8
	.DB  0x88,0x8,0x87,0x8,0x86,0x8,0x86,0x8
	.DB  0x85,0x8,0x84,0x8,0x84,0x8,0x83,0x8
	.DB  0x82,0x8,0x82,0x8,0x81,0x8,0x80,0x8
	.DB  0x80,0x8,0x7F,0x8,0x7E,0x8,0x7E,0x8
	.DB  0x7D,0x8,0x7C,0x8,0x7C,0x8,0x7B,0x8
	.DB  0x7A,0x8,0x7A,0x8,0x79,0x8,0x78,0x8
	.DB  0x78,0x8,0x77,0x8,0x76,0x8,0x76,0x8
	.DB  0x75,0x8,0x74,0x8,0x74,0x8,0x73,0x8
	.DB  0x72,0x8,0x72,0x8,0x71,0x8,0x70,0x8
	.DB  0x70,0x8,0x6F,0x8,0x6E,0x8,0x6E,0x8
	.DB  0x6D,0x8,0x6C,0x8,0x6C,0x8,0x6B,0x8
	.DB  0x6A,0x8,0x6A,0x8,0x69,0x8,0x68,0x8
	.DB  0x68,0x8,0x67,0x8,0x66,0x8,0x66,0x8
	.DB  0x65,0x8,0x64,0x8,0x64,0x8,0x63,0x8
	.DB  0x63,0x8,0x62,0x8,0x61,0x8,0x61,0x8
	.DB  0x60,0x8,0x5F,0x8,0x5F,0x8,0x5E,0x8
	.DB  0x5D,0x8,0x5D,0x8,0x5C,0x8,0x5B,0x8
	.DB  0x5B,0x8,0x5A,0x8,0x5A,0x8,0x59,0x8
	.DB  0x58,0x8,0x58,0x8,0x57,0x8,0x56,0x8
	.DB  0x56,0x8,0x55,0x8,0x54,0x8,0x54,0x8
	.DB  0x53,0x8,0x53,0x8,0x52,0x8,0x51,0x8
	.DB  0x51,0x8,0x50,0x8,0x4F,0x8,0x4F,0x8
	.DB  0x4E,0x8,0x4E,0x8,0x4D,0x8,0x4C,0x8
	.DB  0x4C,0x8,0x4B,0x8,0x4A,0x8,0x4A,0x8
	.DB  0x49,0x8,0x49,0x8,0x48,0x8,0x47,0x8
	.DB  0x47,0x8,0x46,0x8,0x45,0x8,0x45,0x8
	.DB  0x44,0x8,0x44,0x8,0x43,0x8,0x42,0x8
	.DB  0x42,0x8,0x41,0x8,0x40,0x8,0x40,0x8
	.DB  0x3F,0x8,0x3F,0x8,0x3E,0x8,0x3D,0x8
	.DB  0x3D,0x8,0x3C,0x8,0x3C,0x8,0x3B,0x8
	.DB  0x3A,0x8,0x3A,0x8,0x39,0x8,0x38,0x8
	.DB  0x38,0x8,0x37,0x8,0x37,0x8,0x36,0x8
	.DB  0x35,0x8,0x35,0x8,0x34,0x8,0x34,0x8
	.DB  0x33,0x8,0x32,0x8,0x32,0x8,0x31,0x8
	.DB  0x31,0x8,0x30,0x8,0x2F,0x8,0x2F,0x8
	.DB  0x2E,0x8,0x2E,0x8,0x2D,0x8,0x2C,0x8
	.DB  0x2C,0x8,0x2B,0x8,0x2B,0x8,0x2A,0x8
	.DB  0x29,0x8,0x29,0x8,0x28,0x8,0x28,0x8
	.DB  0x27,0x8,0x26,0x8,0x26,0x8,0x25,0x8
	.DB  0x25,0x8,0x24,0x8,0x23,0x8,0x23,0x8
	.DB  0x22,0x8,0x22,0x8,0x21,0x8,0x20,0x8
	.DB  0x20,0x8,0x1F,0x8,0x1F,0x8,0x1E,0x8
	.DB  0x1E,0x8,0x1D,0x8,0x1C,0x8,0x1C,0x8
	.DB  0x1B,0x8,0x1B,0x8,0x1A,0x8,0x19,0x8
	.DB  0x19,0x8,0x18,0x8,0x18,0x8,0x17,0x8
	.DB  0x17,0x8,0x16,0x8,0x15,0x8,0x15,0x8
	.DB  0x14,0x8,0x14,0x8,0x13,0x8,0x12,0x8
	.DB  0x12,0x8,0x11,0x8,0x11,0x8,0x10,0x8
	.DB  0x10,0x8,0xF,0x8,0xE,0x8,0xE,0x8
	.DB  0xD,0x8,0xD,0x8,0xC,0x8,0xC,0x8
	.DB  0xB,0x8,0xA,0x8,0xA,0x8,0x9,0x8
	.DB  0x9,0x8,0x8,0x8,0x8,0x8,0x7,0x8
	.DB  0x6,0x8,0x6,0x8,0x5,0x8,0x5,0x8
	.DB  0x4,0x8,0x4,0x8,0x3,0x8,0x2,0x8
	.DB  0x2,0x8,0x1,0x8,0x1,0x8,0x0,0x8
	.DB  0x0,0x8,0xFF,0x7,0xFE,0x7,0xFE,0x7
	.DB  0xFD,0x7,0xFD,0x7,0xFC,0x7,0xFC,0x7
	.DB  0xFB,0x7,0xFB,0x7,0xFA,0x7,0xF9,0x7
	.DB  0xF9,0x7,0xF8,0x7,0xF8,0x7,0xF7,0x7
	.DB  0xF7,0x7,0xF6,0x7,0xF6,0x7,0xF5,0x7
	.DB  0xF4,0x7,0xF4,0x7,0xF3,0x7,0xF3,0x7
	.DB  0xF2,0x7,0xF2,0x7,0xF1,0x7,0xF1,0x7
	.DB  0xF0,0x7,0xEF,0x7,0xEF,0x7,0xEE,0x7
	.DB  0xEE,0x7,0xED,0x7,0xED,0x7,0xEC,0x7
	.DB  0xEC,0x7,0xEB,0x7,0xEB,0x7,0xEA,0x7
	.DB  0xE9,0x7,0xE9,0x7,0xE8,0x7,0xE8,0x7
	.DB  0xE7,0x7,0xE7,0x7,0xE6,0x7,0xE6,0x7
	.DB  0xE5,0x7,0xE5,0x7,0xE4,0x7,0xE3,0x7
	.DB  0xE3,0x7,0xE2,0x7,0xE2,0x7,0xE1,0x7
	.DB  0xE1,0x7,0xE0,0x7,0xE0,0x7,0xDF,0x7
	.DB  0xDF,0x7,0xDE,0x7,0xDE,0x7,0xDD,0x7
	.DB  0xDC,0x7,0xDC,0x7,0xDB,0x7,0xDB,0x7
	.DB  0xDA,0x7,0xDA,0x7,0xD9,0x7,0xD9,0x7
	.DB  0xD8,0x7,0xD8,0x7,0xD7,0x7,0xD7,0x7
	.DB  0xD6,0x7,0xD6,0x7,0xD5,0x7,0xD5,0x7
	.DB  0xD4,0x7,0xD3,0x7,0xD3,0x7,0xD2,0x7
	.DB  0xD2,0x7,0xD1,0x7,0xD1,0x7,0xD0,0x7
	.DB  0xD0,0x7,0xCF,0x7,0xCF,0x7,0xCE,0x7
	.DB  0xCE,0x7,0xCD,0x7,0xCD,0x7,0xCC,0x7
	.DB  0xCC,0x7,0xCB,0x7,0xCB,0x7,0xCA,0x7
	.DB  0xCA,0x7,0xC9,0x7,0xC8,0x7,0xC8,0x7
	.DB  0xC7,0x7,0xC7,0x7,0xC6,0x7,0xC6,0x7
	.DB  0xC5,0x7,0xC5,0x7,0xC4,0x7,0xC4,0x7
	.DB  0xC3,0x7,0xC3,0x7,0xC2,0x7,0xC2,0x7
	.DB  0xC1,0x7,0xC1,0x7,0xC0,0x7,0xC0,0x7
	.DB  0xBF,0x7,0xBF,0x7,0xBE,0x7,0xBE,0x7
	.DB  0xBD,0x7,0xBD,0x7,0xBC,0x7,0xBC,0x7
	.DB  0xBB,0x7,0xBB,0x7,0xBA,0x7,0xBA,0x7
	.DB  0xB9,0x7,0xB9,0x7,0xB8,0x7,0xB8,0x7
	.DB  0xB7,0x7,0xB7,0x7,0xB6,0x7,0xB6,0x7
	.DB  0xB5,0x7,0xB5,0x7,0xB4,0x7,0xB4,0x7
	.DB  0xB3,0x7,0xB3,0x7,0xB2,0x7,0xB2,0x7
	.DB  0xB1,0x7,0xB1,0x7,0xB0,0x7,0xB0,0x7
	.DB  0xAF,0x7,0xAF,0x7,0xAE,0x7,0xAE,0x7
	.DB  0xAD,0x7,0xAD,0x7,0xAC,0x7,0xAC,0x7
	.DB  0xAB,0x7,0xAB,0x7,0xAA,0x7,0xAA,0x7
	.DB  0xA9,0x7,0xA9,0x7,0xA8,0x7,0xA8,0x7
	.DB  0xA7,0x7,0xA7,0x7,0xA6,0x7,0xA6,0x7
	.DB  0xA5,0x7,0xA5,0x7,0xA4,0x7,0xA4,0x7
	.DB  0xA3,0x7,0xA3,0x7,0xA2,0x7,0xA2,0x7
	.DB  0xA1,0x7,0xA1,0x7,0xA0,0x7,0xA0,0x7
	.DB  0x9F,0x7,0x9F,0x7,0x9E,0x7,0x9E,0x7
	.DB  0x9D,0x7,0x9D,0x7,0x9C,0x7,0x9C,0x7
	.DB  0x9B,0x7,0x9B,0x7,0x9A,0x7,0x9A,0x7
	.DB  0x99,0x7,0x99,0x7,0x99,0x7,0x98,0x7
	.DB  0x98,0x7,0x97,0x7,0x97,0x7,0x96,0x7
	.DB  0x96,0x7,0x95,0x7,0x95,0x7,0x94,0x7
	.DB  0x94,0x7,0x93,0x7,0x93,0x7,0x92,0x7
	.DB  0x92,0x7,0x91,0x7,0x91,0x7,0x90,0x7
	.DB  0x90,0x7,0x8F,0x7,0x8F,0x7,0x8E,0x7
	.DB  0x8E,0x7,0x8E,0x7,0x8D,0x7,0x8D,0x7
	.DB  0x8C,0x7,0x8C,0x7,0x8B,0x7,0x8B,0x7
	.DB  0x8A,0x7,0x8A,0x7,0x89,0x7,0x89,0x7
	.DB  0x88,0x7,0x88,0x7,0x87,0x7,0x87,0x7
	.DB  0x86,0x7,0x86,0x7,0x86,0x7,0x85,0x7
	.DB  0x85,0x7,0x84,0x7,0x84,0x7,0x83,0x7
	.DB  0x83,0x7,0x82,0x7,0x82,0x7,0x81,0x7
	.DB  0x81,0x7,0x80,0x7,0x80,0x7,0x80,0x7
	.DB  0x7F,0x7,0x7F,0x7,0x7E,0x7,0x7E,0x7
	.DB  0x7D,0x7,0x7D,0x7,0x7C,0x7,0x7C,0x7
	.DB  0x7B,0x7,0x7B,0x7,0x7A,0x7,0x7A,0x7
	.DB  0x7A,0x7,0x79,0x7,0x79,0x7,0x78,0x7
	.DB  0x78,0x7,0x77,0x7,0x77,0x7,0x76,0x7
	.DB  0x76,0x7,0x75,0x7,0x75,0x7,0x75,0x7
	.DB  0x74,0x7,0x74,0x7,0x73,0x7,0x73,0x7
	.DB  0x72,0x7,0x72,0x7,0x71,0x7,0x71,0x7
	.DB  0x70,0x7,0x70,0x7,0x70,0x7,0x6F,0x7
	.DB  0x6F,0x7,0x6E,0x7,0x6E,0x7,0x6D,0x7
	.DB  0x6D,0x7,0x6C,0x7,0x6C,0x7,0x6B,0x7
	.DB  0x6B,0x7,0x6B,0x7,0x6A,0x7,0x6A,0x7
	.DB  0x69,0x7,0x69,0x7,0x68,0x7,0x68,0x7
	.DB  0x67,0x7,0x67,0x7,0x67,0x7,0x66,0x7
	.DB  0x66,0x7,0x65,0x7,0x65,0x7,0x64,0x7
	.DB  0x64,0x7,0x63,0x7,0x63,0x7,0x63,0x7
	.DB  0x62,0x7,0x62,0x7,0x61,0x7,0x61,0x7
	.DB  0x60,0x7,0x60,0x7,0x60,0x7,0x5F,0x7
	.DB  0x5F,0x7,0x5E,0x7,0x5E,0x7,0x5D,0x7
	.DB  0x5D,0x7,0x5C,0x7,0x5C,0x7,0x5C,0x7
	.DB  0x5B,0x7,0x5B,0x7,0x5A,0x7,0x5A,0x7
	.DB  0x59,0x7,0x59,0x7,0x59,0x7,0x58,0x7
	.DB  0x58,0x7,0x57,0x7,0x57,0x7,0x56,0x7
	.DB  0x56,0x7,0x56,0x7,0x55,0x7,0x55,0x7
	.DB  0x54,0x7,0x54,0x7,0x53,0x7,0x53,0x7
	.DB  0x53,0x7,0x52,0x7,0x52,0x7,0x51,0x7
	.DB  0x51,0x7,0x50,0x7,0x50,0x7,0x50,0x7
	.DB  0x4F,0x7,0x4F,0x7,0x4E,0x7,0x4E,0x7
	.DB  0x4D,0x7,0x4D,0x7,0x4D,0x7,0x4C,0x7
	.DB  0x4C,0x7,0x4B,0x7,0x4B,0x7,0x4A,0x7
	.DB  0x4A,0x7,0x4A,0x7,0x49,0x7,0x49,0x7
	.DB  0x48,0x7,0x48,0x7,0x47,0x7,0x47,0x7
	.DB  0x47,0x7,0x46,0x7,0x46,0x7,0x45,0x7
	.DB  0x45,0x7,0x45,0x7,0x44,0x7,0x44,0x7
	.DB  0x43,0x7,0x43,0x7,0x42,0x7,0x42,0x7
	.DB  0x42,0x7,0x41,0x7,0x41,0x7,0x40,0x7
	.DB  0x40,0x7,0x40,0x7,0x3F,0x7,0x3F,0x7
	.DB  0x3E,0x7,0x3E,0x7,0x3D,0x7,0x3D,0x7
	.DB  0x3D,0x7,0x3C,0x7,0x3C,0x7,0x3B,0x7
	.DB  0x3B,0x7,0x3B,0x7,0x3A,0x7,0x3A,0x7
	.DB  0x39,0x7,0x39,0x7,0x38,0x7,0x38,0x7
	.DB  0x38,0x7,0x37,0x7,0x37,0x7,0x36,0x7
	.DB  0x36,0x7,0x36,0x7,0x35,0x7,0x35,0x7
	.DB  0x34,0x7,0x34,0x7,0x34,0x7,0x33,0x7
	.DB  0x33,0x7,0x32,0x7,0x32,0x7,0x32,0x7
	.DB  0x31,0x7,0x31,0x7,0x30,0x7,0x30,0x7
	.DB  0x30,0x7,0x2F,0x7,0x2F,0x7,0x2E,0x7
	.DB  0x2E,0x7,0x2E,0x7,0x2D,0x7,0x2D,0x7
	.DB  0x2C,0x7,0x2C,0x7,0x2B,0x7,0x2B,0x7
	.DB  0x2B,0x7,0x2A,0x7,0x2A,0x7,0x29,0x7
	.DB  0x29,0x7,0x29,0x7,0x28,0x7,0x28,0x7
	.DB  0x27,0x7,0x27,0x7,0x27,0x7,0x26,0x7
	.DB  0x26,0x7,0x26,0x7,0x25,0x7,0x25,0x7
	.DB  0x24,0x7,0x24,0x7,0x24,0x7,0x23,0x7
	.DB  0x23,0x7,0x22,0x7,0x22,0x7,0x22,0x7
	.DB  0x21,0x7,0x21,0x7,0x20,0x7,0x20,0x7
	.DB  0x20,0x7,0x1F,0x7,0x1F,0x7,0x1E,0x7
	.DB  0x1E,0x7,0x1E,0x7,0x1D,0x7,0x1D,0x7
	.DB  0x1C,0x7,0x1C,0x7,0x1C,0x7,0x1B,0x7
	.DB  0x1B,0x7,0x1B,0x7,0x1A,0x7,0x1A,0x7
	.DB  0x19,0x7,0x19,0x7,0x19,0x7,0x18,0x7
	.DB  0x18,0x7,0x17,0x7,0x17,0x7,0x17,0x7
	.DB  0x16,0x7,0x16,0x7,0x15,0x7,0x15,0x7
	.DB  0x15,0x7,0x14,0x7,0x14,0x7,0x14,0x7
	.DB  0x13,0x7,0x13,0x7,0x12,0x7,0x12,0x7
	.DB  0x12,0x7,0x11,0x7,0x11,0x7,0x10,0x7
	.DB  0x10,0x7,0x10,0x7,0xF,0x7,0xF,0x7
	.DB  0xF,0x7,0xE,0x7,0xE,0x7,0xD,0x7
	.DB  0xD,0x7,0xD,0x7,0xC,0x7,0xC,0x7
	.DB  0xC,0x7,0xB,0x7,0xB,0x7,0xA,0x7
	.DB  0xA,0x7,0xA,0x7,0x9,0x7,0x9,0x7
	.DB  0x9,0x7,0x8,0x7,0x8,0x7,0x7,0x7
	.DB  0x7,0x7,0x7,0x7,0x6,0x7,0x6,0x7
	.DB  0x5,0x7,0x5,0x7,0x5,0x7,0x4,0x7
	.DB  0x4,0x7,0x4,0x7,0x3,0x7,0x3,0x7
	.DB  0x3,0x7,0x2,0x7,0x2,0x7,0x1,0x7
	.DB  0x1,0x7,0x1,0x7,0x0,0x7,0x0,0x7
	.DB  0x0,0x7,0xFF,0x6,0xFF,0x6,0xFE,0x6
	.DB  0xFE,0x6,0xFE,0x6,0xFD,0x6,0xFD,0x6
	.DB  0xFD,0x6,0xFC,0x6,0xFC,0x6,0xFB,0x6
	.DB  0xFB,0x6,0xFB,0x6,0xFA,0x6,0xFA,0x6
	.DB  0xFA,0x6,0xF9,0x6,0xF9,0x6,0xF9,0x6
	.DB  0xF8,0x6,0xF8,0x6,0xF7,0x6,0xF7,0x6
	.DB  0xF7,0x6,0xF6,0x6,0xF6,0x6,0xF6,0x6
	.DB  0xF5,0x6,0xF5,0x6,0xF5,0x6,0xF4,0x6
	.DB  0xF4,0x6,0xF3,0x6,0xF3,0x6,0xF3,0x6
	.DB  0xF2,0x6,0xF2,0x6,0xF2,0x6,0xF1,0x6
	.DB  0xF1,0x6,0xF1,0x6,0xF0,0x6,0xF0,0x6
	.DB  0xEF,0x6,0xEF,0x6,0xEF,0x6,0xEE,0x6
	.DB  0xEE,0x6,0xEE,0x6,0xED,0x6,0xED,0x6
	.DB  0xED,0x6,0xEC,0x6,0xEC,0x6,0xEC,0x6
	.DB  0xEB,0x6,0xEB,0x6,0xEA,0x6,0xEA,0x6
	.DB  0xEA,0x6,0xE9,0x6,0xE9,0x6,0xE9,0x6
	.DB  0xE8,0x6,0xE8,0x6,0xE8,0x6,0xE7,0x6
	.DB  0xE7,0x6,0xE7,0x6,0xE6,0x6,0xE6,0x6
	.DB  0xE5,0x6,0xE5,0x6,0xE5,0x6,0xE4,0x6
	.DB  0xE4,0x6,0xE4,0x6,0xE3,0x6,0xE3,0x6
	.DB  0xE3,0x6,0xE2,0x6,0xE2,0x6,0xE2,0x6
	.DB  0xE1,0x6,0xE1,0x6,0xE1,0x6,0xE0,0x6
	.DB  0xE0,0x6,0xE0,0x6,0xDF,0x6,0xDF,0x6
	.DB  0xDE,0x6,0xDE,0x6,0xDE,0x6,0xDD,0x6
	.DB  0xDD,0x6,0xDD,0x6,0xDC,0x6,0xDC,0x6
	.DB  0xDC,0x6,0xDB,0x6,0xDB,0x6,0xDB,0x6
	.DB  0xDA,0x6,0xDA,0x6,0xDA,0x6,0xD9,0x6
	.DB  0xD9,0x6,0xD9,0x6,0xD8,0x6,0xD8,0x6
	.DB  0xD8,0x6,0xD7,0x6,0xD7,0x6,0xD7,0x6
	.DB  0xD6,0x6,0xD6,0x6,0xD5,0x6,0xD5,0x6
	.DB  0xD5,0x6,0xD4,0x6,0xD4,0x6,0xD4,0x6
	.DB  0xD3,0x6,0xD3,0x6,0xD3,0x6,0xD2,0x6
	.DB  0xD2,0x6,0xD2,0x6,0xD1,0x6,0xD1,0x6
	.DB  0xD1,0x6,0xD0,0x6,0xD0,0x6,0xD0,0x6
	.DB  0xCF,0x6,0xCF,0x6,0xCF,0x6,0xCE,0x6
	.DB  0xCE,0x6,0xCE,0x6,0xCD,0x6,0xCD,0x6
	.DB  0xCD,0x6,0xCC,0x6,0xCC,0x6,0xCC,0x6
	.DB  0xCB,0x6,0xCB,0x6,0xCB,0x6,0xCA,0x6
	.DB  0xCA,0x6,0xCA,0x6,0xC9,0x6,0xC9,0x6
	.DB  0xC9,0x6,0xC8,0x6,0xC8,0x6,0xC8,0x6
	.DB  0xC7,0x6,0xC7,0x6,0xC7,0x6,0xC6,0x6
	.DB  0xC6,0x6,0xC6,0x6,0xC5,0x6,0xC5,0x6
	.DB  0xC5,0x6,0xC4,0x6,0xC4,0x6,0xC4,0x6
	.DB  0xC3,0x6,0xC3,0x6,0xC3,0x6,0xC2,0x6
	.DB  0xC2,0x6,0xC2,0x6,0xC1,0x6,0xC1,0x6
	.DB  0xC1,0x6,0xC0,0x6,0xC0,0x6,0xC0,0x6
	.DB  0xBF,0x6,0xBF,0x6,0xBF,0x6,0xBE,0x6
	.DB  0xBE,0x6,0xBE,0x6,0xBD,0x6,0xBD,0x6
	.DB  0xBD,0x6,0xBC,0x6,0xBC,0x6,0xBC,0x6
	.DB  0xBB,0x6,0xBB,0x6,0xBB,0x6,0xBA,0x6
	.DB  0xBA,0x6,0xBA,0x6,0xBA,0x6,0xB9,0x6
	.DB  0xB9,0x6,0xB9,0x6,0xB8,0x6,0xB8,0x6
	.DB  0xB8,0x6,0xB7,0x6,0xB7,0x6,0xB7,0x6
	.DB  0xB6,0x6,0xB6,0x6,0xB6,0x6,0xB5,0x6
	.DB  0xB5,0x6,0xB5,0x6,0xB4,0x6,0xB4,0x6
	.DB  0xB4,0x6,0xB3,0x6,0xB3,0x6,0xB3,0x6
	.DB  0xB2,0x6,0xB2,0x6,0xB2,0x6,0xB1,0x6
	.DB  0xB1,0x6,0xB1,0x6,0xB1,0x6,0xB0,0x6
	.DB  0xB0,0x6,0xB0,0x6,0xAF,0x6,0xAF,0x6
	.DB  0xAF,0x6,0xAE,0x6,0xAE,0x6,0xAE,0x6
	.DB  0xAD,0x6,0xAD,0x6,0xAD,0x6,0xAC,0x6
	.DB  0xAC,0x6,0xAC,0x6,0xAB,0x6,0xAB,0x6
	.DB  0xAB,0x6,0xAB,0x6,0xAA,0x6,0xAA,0x6
	.DB  0xAA,0x6,0xA9,0x6,0xA9,0x6,0xA9,0x6
	.DB  0xA8,0x6,0xA8,0x6,0xA8,0x6,0xA7,0x6
	.DB  0xA7,0x6,0xA7,0x6,0xA6,0x6,0xA6,0x6
	.DB  0xA6,0x6,0xA6,0x6,0xA5,0x6,0xA5,0x6
	.DB  0xA5,0x6,0xA4,0x6,0xA4,0x6,0xA4,0x6
	.DB  0xA3,0x6,0xA3,0x6,0xA3,0x6,0xA2,0x6
	.DB  0xA2,0x6,0xA2,0x6,0xA1,0x6,0xA1,0x6
	.DB  0xA1,0x6,0xA1,0x6,0xA0,0x6,0xA0,0x6
	.DB  0xA0,0x6,0x9F,0x6,0x9F,0x6,0x9F,0x6
	.DB  0x9E,0x6,0x9E,0x6,0x9E,0x6,0x9D,0x6
	.DB  0x9D,0x6,0x9D,0x6,0x9D,0x6,0x9C,0x6
	.DB  0x9C,0x6,0x9C,0x6,0x9B,0x6,0x9B,0x6
	.DB  0x9B,0x6,0x9A,0x6,0x9A,0x6,0x9A,0x6
	.DB  0x9A,0x6,0x99,0x6,0x99,0x6,0x99,0x6
	.DB  0x98,0x6,0x98,0x6,0x98,0x6,0x97,0x6
	.DB  0x97,0x6,0x97,0x6,0x96,0x6,0x96,0x6
	.DB  0x96,0x6,0x96,0x6,0x95,0x6,0x95,0x6
	.DB  0x95,0x6,0x94,0x6,0x94,0x6,0x94,0x6
	.DB  0x93,0x6,0x93,0x6,0x93,0x6,0x93,0x6
	.DB  0x92,0x6,0x92,0x6,0x92,0x6,0x91,0x6
	.DB  0x91,0x6,0x91,0x6,0x90,0x6,0x90,0x6
	.DB  0x90,0x6,0x90,0x6,0x8F,0x6,0x8F,0x6
	.DB  0x8F,0x6,0x8E,0x6,0x8E,0x6,0x8E,0x6
	.DB  0x8E,0x6,0x8D,0x6,0x8D,0x6,0x8D,0x6
	.DB  0x8C,0x6,0x8C,0x6,0x8C,0x6,0x8B,0x6
	.DB  0x8B,0x6,0x8B,0x6,0x8B,0x6,0x8A,0x6
	.DB  0x8A,0x6,0x8A,0x6,0x89,0x6,0x89,0x6
	.DB  0x89,0x6,0x88,0x6,0x88,0x6,0x88,0x6
	.DB  0x88,0x6,0x87,0x6,0x87,0x6,0x87,0x6
	.DB  0x86,0x6,0x86,0x6,0x86,0x6,0x86,0x6
	.DB  0x85,0x6,0x85,0x6,0x85,0x6,0x84,0x6
	.DB  0x84,0x6,0x84,0x6,0x84,0x6,0x83,0x6
	.DB  0x83,0x6,0x83,0x6,0x82,0x6,0x82,0x6
	.DB  0x82,0x6,0x82,0x6,0x81,0x6,0x81,0x6
	.DB  0x81,0x6,0x80,0x6,0x80,0x6,0x80,0x6
	.DB  0x7F,0x6,0x7F,0x6,0x7F,0x6,0x7F,0x6
	.DB  0x7E,0x6,0x7E,0x6,0x7E,0x6,0x7D,0x6
	.DB  0x7D,0x6,0x7D,0x6,0x7D,0x6,0x7C,0x6
	.DB  0x7C,0x6,0x7C,0x6,0x7B,0x6,0x7B,0x6
	.DB  0x7B,0x6,0x7B,0x6,0x7A,0x6,0x7A,0x6
	.DB  0x7A,0x6,0x79,0x6,0x79,0x6,0x79,0x6
	.DB  0x79,0x6,0x78,0x6,0x78,0x6,0x78,0x6
	.DB  0x78,0x6,0x77,0x6,0x77,0x6,0x77,0x6
	.DB  0x76,0x6,0x76,0x6,0x76,0x6,0x76,0x6
	.DB  0x75,0x6,0x75,0x6,0x75,0x6,0x74,0x6
	.DB  0x74,0x6,0x74,0x6,0x74,0x6,0x73,0x6
	.DB  0x73,0x6,0x73,0x6,0x72,0x6,0x72,0x6
	.DB  0x72,0x6,0x72,0x6,0x71,0x6,0x71,0x6
	.DB  0x71,0x6,0x70,0x6,0x70,0x6,0x70,0x6
	.DB  0x70,0x6,0x6F,0x6,0x6F,0x6,0x6F,0x6
	.DB  0x6F,0x6,0x6E,0x6,0x6E,0x6,0x6E,0x6
	.DB  0x6D,0x6,0x6D,0x6,0x6D,0x6,0x6D,0x6
	.DB  0x6C,0x6,0x6C,0x6,0x6C,0x6,0x6C,0x6
	.DB  0x6B,0x6,0x6B,0x6,0x6B,0x6,0x6A,0x6
	.DB  0x6A,0x6,0x6A,0x6,0x6A,0x6,0x69,0x6
	.DB  0x69,0x6,0x69,0x6,0x68,0x6,0x68,0x6
	.DB  0x68,0x6,0x68,0x6,0x67,0x6,0x67,0x6
	.DB  0x67,0x6,0x67,0x6,0x66,0x6,0x66,0x6
	.DB  0x66,0x6,0x65,0x6,0x65,0x6,0x65,0x6
	.DB  0x65,0x6,0x64,0x6,0x64,0x6,0x64,0x6
	.DB  0x64,0x6,0x63,0x6,0x63,0x6,0x63,0x6
	.DB  0x63,0x6,0x62,0x6,0x62,0x6,0x62,0x6
	.DB  0x61,0x6,0x61,0x6,0x61,0x6,0x61,0x6
	.DB  0x60,0x6,0x60,0x6,0x60,0x6,0x60,0x6
	.DB  0x5F,0x6,0x5F,0x6,0x5F,0x6,0x5E,0x6
	.DB  0x5E,0x6,0x5E,0x6,0x5E,0x6,0x5D,0x6
	.DB  0x5D,0x6,0x5D,0x6,0x5D,0x6,0x5C,0x6
	.DB  0x5C,0x6,0x5C,0x6,0x5C,0x6,0x5B,0x6
	.DB  0x5B,0x6,0x5B,0x6,0x5A,0x6,0x5A,0x6
	.DB  0x5A,0x6,0x5A,0x6,0x59,0x6,0x59,0x6
	.DB  0x59,0x6,0x59,0x6,0x58,0x6,0x58,0x6
	.DB  0x58,0x6,0x58,0x6,0x57,0x6,0x57,0x6
	.DB  0x57,0x6,0x57,0x6,0x56,0x6,0x56,0x6
	.DB  0x56,0x6,0x55,0x6,0x55,0x6,0x55,0x6
	.DB  0x55,0x6,0x54,0x6,0x54,0x6,0x54,0x6
	.DB  0x54,0x6,0x53,0x6,0x53,0x6,0x53,0x6
	.DB  0x53,0x6,0x52,0x6,0x52,0x6,0x52,0x6
	.DB  0x52,0x6,0x51,0x6,0x51,0x6,0x51,0x6
	.DB  0x51,0x6,0x50,0x6,0x50,0x6,0x50,0x6
	.DB  0x4F,0x6,0x4F,0x6,0x4F,0x6,0x4F,0x6
	.DB  0x4E,0x6,0x4E,0x6,0x4E,0x6,0x4E,0x6
	.DB  0x4D,0x6,0x4D,0x6,0x4D,0x6,0x4D,0x6
	.DB  0x4C,0x6,0x4C,0x6,0x4C,0x6,0x4C,0x6
	.DB  0x4B,0x6,0x4B,0x6,0x4B,0x6,0x4B,0x6
	.DB  0x4A,0x6,0x4A,0x6,0x4A,0x6,0x4A,0x6
	.DB  0x49,0x6,0x49,0x6,0x49,0x6,0x49,0x6
	.DB  0x48,0x6,0x48,0x6,0x48,0x6,0x48,0x6
	.DB  0x47,0x6,0x47,0x6,0x47,0x6,0x47,0x6
	.DB  0x46,0x6,0x46,0x6,0x46,0x6,0x45,0x6
	.DB  0x45,0x6,0x45,0x6,0x45,0x6,0x44,0x6
	.DB  0x44,0x6,0x44,0x6,0x44,0x6,0x43,0x6
	.DB  0x43,0x6,0x43,0x6,0x43,0x6,0x42,0x6
	.DB  0x42,0x6,0x42,0x6,0x42,0x6,0x41,0x6
	.DB  0x41,0x6,0x41,0x6,0x41,0x6,0x40,0x6
	.DB  0x40,0x6,0x40,0x6,0x40,0x6,0x3F,0x6
	.DB  0x3F,0x6,0x3F,0x6,0x3F,0x6,0x3E,0x6
	.DB  0x3E,0x6,0x3E,0x6,0x3E,0x6,0x3D,0x6
	.DB  0x3D,0x6,0x3D,0x6,0x3D,0x6,0x3C,0x6
	.DB  0x3C,0x6,0x3C,0x6,0x3C,0x6,0x3B,0x6
	.DB  0x3B,0x6,0x3B,0x6,0x3B,0x6,0x3B,0x6
	.DB  0x3A,0x6,0x3A,0x6,0x3A,0x6,0x3A,0x6
	.DB  0x39,0x6,0x39,0x6,0x39,0x6,0x39,0x6
	.DB  0x38,0x6,0x38,0x6,0x38,0x6,0x38,0x6
	.DB  0x37,0x6,0x37,0x6,0x37,0x6,0x37,0x6
	.DB  0x36,0x6,0x36,0x6,0x36,0x6,0x36,0x6
	.DB  0x35,0x6,0x35,0x6,0x35,0x6,0x35,0x6
	.DB  0x34,0x6,0x34,0x6,0x34,0x6,0x34,0x6
	.DB  0x33,0x6,0x33,0x6,0x33,0x6,0x33,0x6
	.DB  0x32,0x6,0x32,0x6,0x32,0x6,0x32,0x6
	.DB  0x31,0x6,0x31,0x6,0x31,0x6,0x31,0x6
	.DB  0x31,0x6,0x30,0x6,0x30,0x6,0x30,0x6
	.DB  0x30,0x6,0x2F,0x6,0x2F,0x6,0x2F,0x6
	.DB  0x2F,0x6,0x2E,0x6,0x2E,0x6,0x2E,0x6
	.DB  0x2E,0x6,0x2D,0x6,0x2D,0x6,0x2D,0x6
	.DB  0x2D,0x6,0x2C,0x6,0x2C,0x6,0x2C,0x6
	.DB  0x2C,0x6,0x2B,0x6,0x2B,0x6,0x2B,0x6
	.DB  0x2B,0x6,0x2B,0x6,0x2A,0x6,0x2A,0x6
	.DB  0x2A,0x6,0x2A,0x6,0x29,0x6,0x29,0x6
	.DB  0x29,0x6,0x29,0x6,0x28,0x6,0x28,0x6
	.DB  0x28,0x6,0x28,0x6,0x27,0x6,0x27,0x6
	.DB  0x27,0x6,0x27,0x6,0x27,0x6,0x26,0x6
	.DB  0x26,0x6,0x26,0x6,0x26,0x6,0x25,0x6
	.DB  0x25,0x6,0x25,0x6,0x25,0x6,0x24,0x6
	.DB  0x24,0x6,0x24,0x6,0x24,0x6,0x23,0x6
	.DB  0x23,0x6,0x23,0x6,0x23,0x6,0x23,0x6
	.DB  0x22,0x6,0x22,0x6,0x22,0x6,0x22,0x6
	.DB  0x21,0x6,0x21,0x6,0x21,0x6,0x21,0x6
	.DB  0x20,0x6,0x20,0x6,0x20,0x6,0x20,0x6
	.DB  0x20,0x6,0x1F,0x6,0x1F,0x6,0x1F,0x6
	.DB  0x1F,0x6,0x1E,0x6,0x1E,0x6,0x1E,0x6
	.DB  0x1E,0x6,0x1D,0x6,0x1D,0x6,0x1D,0x6
	.DB  0x1D,0x6,0x1D,0x6,0x1C,0x6,0x1C,0x6
	.DB  0x1C,0x6,0x1C,0x6,0x1B,0x6,0x1B,0x6
	.DB  0x1B,0x6,0x1B,0x6,0x1A,0x6,0x1A,0x6
	.DB  0x1A,0x6,0x1A,0x6,0x1A,0x6,0x19,0x6
	.DB  0x19,0x6,0x19,0x6,0x19,0x6,0x18,0x6
	.DB  0x18,0x6,0x18,0x6,0x18,0x6,0x17,0x6
	.DB  0x17,0x6,0x17,0x6,0x17,0x6,0x17,0x6
	.DB  0x16,0x6,0x16,0x6,0x16,0x6,0x16,0x6
	.DB  0x15,0x6,0x15,0x6,0x15,0x6,0x15,0x6
	.DB  0x15,0x6,0x14,0x6,0x14,0x6,0x14,0x6
	.DB  0x14,0x6,0x13,0x6,0x13,0x6,0x13,0x6
	.DB  0x13,0x6,0x13,0x6,0x12,0x6,0x12,0x6
	.DB  0x12,0x6,0x12,0x6,0x11,0x6,0x11,0x6
	.DB  0x11,0x6,0x11,0x6,0x11,0x6,0x10,0x6
	.DB  0x10,0x6,0x10,0x6,0x10,0x6,0xF,0x6
	.DB  0xF,0x6,0xF,0x6,0xF,0x6,0xE,0x6
	.DB  0xE,0x6,0xE,0x6,0xE,0x6,0xE,0x6
	.DB  0xD,0x6,0xD,0x6,0xD,0x6,0xD,0x6
	.DB  0xD,0x6,0xC,0x6,0xC,0x6,0xC,0x6
	.DB  0xC,0x6,0xB,0x6,0xB,0x6,0xB,0x6
	.DB  0xB,0x6,0xB,0x6,0xA,0x6,0xA,0x6
	.DB  0xA,0x6,0xA,0x6,0x9,0x6,0x9,0x6
	.DB  0x9,0x6,0x9,0x6,0x9,0x6,0x8,0x6
	.DB  0x8,0x6,0x8,0x6,0x8,0x6,0x7,0x6
	.DB  0x7,0x6,0x7,0x6,0x7,0x6,0x7,0x6
	.DB  0x6,0x6,0x6,0x6,0x6,0x6,0x6,0x6
	.DB  0x5,0x6,0x5,0x6,0x5,0x6,0x5,0x6
	.DB  0x5,0x6,0x4,0x6,0x4,0x6,0x4,0x6
	.DB  0x4,0x6,0x4,0x6,0x3,0x6,0x3,0x6
	.DB  0x3,0x6,0x3,0x6,0x2,0x6,0x2,0x6
	.DB  0x2,0x6,0x2,0x6,0x2,0x6,0x1,0x6
	.DB  0x1,0x6,0x1,0x6,0x1,0x6,0x1,0x6
	.DB  0x0,0x6,0x0,0x6,0x0,0x6,0x0,0x6
	.DB  0xFF,0x5,0xFF,0x5,0xFF,0x5,0xFF,0x5
	.DB  0xFF,0x5,0xFE,0x5,0xFE,0x5,0xFE,0x5
	.DB  0xFE,0x5,0xFE,0x5,0xFD,0x5,0xFD,0x5
	.DB  0xFD,0x5,0xFD,0x5,0xFC,0x5,0xFC,0x5
	.DB  0xFC,0x5,0xFC,0x5,0xFC,0x5,0xFB,0x5
	.DB  0xFB,0x5,0xFB,0x5,0xFB,0x5,0xFB,0x5
	.DB  0xFA,0x5,0xFA,0x5,0xFA,0x5,0xFA,0x5
	.DB  0xFA,0x5,0xF9,0x5,0xF9,0x5,0xF9,0x5
	.DB  0xF9,0x5,0xF8,0x5,0xF8,0x5,0xF8,0x5
	.DB  0xF8,0x5,0xF8,0x5,0xF7,0x5,0xF7,0x5
	.DB  0xF7,0x5,0xF7,0x5,0xF7,0x5,0xF6,0x5
	.DB  0xF6,0x5,0xF6,0x5,0xF6,0x5,0xF6,0x5
	.DB  0xF5,0x5,0xF5,0x5,0xF5,0x5,0xF5,0x5
	.DB  0xF4,0x5,0xF4,0x5,0xF4,0x5,0xF4,0x5
	.DB  0xF4,0x5,0xF3,0x5,0xF3,0x5,0xF3,0x5
	.DB  0xF3,0x5,0xF3,0x5,0xF2,0x5,0xF2,0x5
	.DB  0xF2,0x5,0xF2,0x5,0xF2,0x5,0xF1,0x5
	.DB  0xF1,0x5,0xF1,0x5,0xF1,0x5,0xF1,0x5
	.DB  0xF0,0x5,0xF0,0x5,0xF0,0x5,0xF0,0x5
	.DB  0xF0,0x5,0xEF,0x5,0xEF,0x5,0xEF,0x5
	.DB  0xEF,0x5,0xEE,0x5,0xEE,0x5,0xEE,0x5
	.DB  0xEE,0x5,0xEE,0x5,0xED,0x5,0xED,0x5
	.DB  0xED,0x5,0xED,0x5,0xED,0x5,0xEC,0x5
	.DB  0xEC,0x5,0xEC,0x5,0xEC,0x5,0xEC,0x5
	.DB  0xEB,0x5,0xEB,0x5,0xEB,0x5,0xEB,0x5
	.DB  0xEB,0x5,0xEA,0x5,0xEA,0x5,0xEA,0x5
	.DB  0xEA,0x5,0xEA,0x5,0xE9,0x5,0xE9,0x5
	.DB  0xE9,0x5,0xE9,0x5,0xE9,0x5,0xE8,0x5
	.DB  0xE8,0x5,0xE8,0x5,0xE8,0x5,0xE8,0x5
	.DB  0xE7,0x5,0xE7,0x5,0xE7,0x5,0xE7,0x5
	.DB  0xE7,0x5,0xE6,0x5,0xE6,0x5,0xE6,0x5
	.DB  0xE6,0x5,0xE6,0x5,0xE5,0x5,0xE5,0x5
	.DB  0xE5,0x5,0xE5,0x5,0xE5,0x5,0xE4,0x5
	.DB  0xE4,0x5,0xE4,0x5,0xE4,0x5,0xE4,0x5
	.DB  0xE3,0x5,0xE3,0x5,0xE3,0x5,0xE3,0x5
	.DB  0xE3,0x5,0xE2,0x5,0xE2,0x5,0xE2,0x5
	.DB  0xE2,0x5,0xE2,0x5,0xE1,0x5,0xE1,0x5
	.DB  0xE1,0x5,0xE1,0x5,0xE1,0x5,0xE0,0x5
	.DB  0xE0,0x5,0xE0,0x5,0xE0,0x5,0xE0,0x5
	.DB  0xDF,0x5,0xDF,0x5,0xDF,0x5,0xDF,0x5
	.DB  0xDF,0x5,0xDE,0x5,0xDE,0x5,0xDE,0x5
	.DB  0xDE,0x5,0xDE,0x5,0xDD,0x5,0xDD,0x5
	.DB  0xDD,0x5,0xDD,0x5,0xDD,0x5,0xDC,0x5
	.DB  0xDC,0x5,0xDC,0x5,0xDC,0x5,0xDC,0x5
	.DB  0xDB,0x5,0xDB,0x5,0xDB,0x5,0xDB,0x5
	.DB  0xDB,0x5,0xDB,0x5,0xDA,0x5,0xDA,0x5
	.DB  0xDA,0x5,0xDA,0x5,0xDA,0x5,0xD9,0x5
	.DB  0xD9,0x5,0xD9,0x5,0xD9,0x5,0xD9,0x5
	.DB  0xD8,0x5,0xD8,0x5,0xD8,0x5,0xD8,0x5
	.DB  0xD8,0x5,0xD7,0x5,0xD7,0x5,0xD7,0x5
	.DB  0xD7,0x5,0xD7,0x5,0xD6,0x5,0xD6,0x5
	.DB  0xD6,0x5,0xD6,0x5,0xD6,0x5,0xD5,0x5
	.DB  0xD5,0x5,0xD5,0x5,0xD5,0x5,0xD5,0x5
	.DB  0xD5,0x5,0xD4,0x5,0xD4,0x5,0xD4,0x5
	.DB  0xD4,0x5,0xD4,0x5,0xD3,0x5,0xD3,0x5
	.DB  0xD3,0x5,0xD3,0x5,0xD3,0x5,0xD2,0x5
	.DB  0xD2,0x5,0xD2,0x5,0xD2,0x5,0xD2,0x5
	.DB  0xD1,0x5,0xD1,0x5,0xD1,0x5,0xD1,0x5
	.DB  0xD1,0x5,0xD1,0x5,0xD0,0x5,0xD0,0x5
	.DB  0xD0,0x5,0xD0,0x5,0xD0,0x5,0xCF,0x5
	.DB  0xCF,0x5,0xCF,0x5,0xCF,0x5,0xCF,0x5
	.DB  0xCE,0x5,0xCE,0x5,0xCE,0x5,0xCE,0x5
	.DB  0xCE,0x5,0xCE,0x5,0xCD,0x5,0xCD,0x5
	.DB  0xCD,0x5,0xCD,0x5,0xCD,0x5,0xCC,0x5
	.DB  0xCC,0x5,0xCC,0x5,0xCC,0x5,0xCC,0x5
	.DB  0xCB,0x5,0xCB,0x5,0xCB,0x5,0xCB,0x5
	.DB  0xCB,0x5,0xCB,0x5,0xCA,0x5,0xCA,0x5
	.DB  0xCA,0x5,0xCA,0x5,0xCA,0x5,0xC9,0x5
	.DB  0xC9,0x5,0xC9,0x5,0xC9,0x5,0xC9,0x5
	.DB  0xC8,0x5,0xC8,0x5,0xC8,0x5,0xC8,0x5
	.DB  0xC8,0x5,0xC8,0x5,0xC7,0x5,0xC7,0x5
	.DB  0xC7,0x5,0xC7,0x5,0xC7,0x5,0xC6,0x5
	.DB  0xC6,0x5,0xC6,0x5,0xC6,0x5,0xC6,0x5
	.DB  0xC6,0x5,0xC5,0x5,0xC5,0x5,0xC5,0x5
	.DB  0xC5,0x5,0xC5,0x5,0xC4,0x5,0xC4,0x5
	.DB  0xC4,0x5,0xC4,0x5,0xC4,0x5,0xC3,0x5
	.DB  0xC3,0x5,0xC3,0x5,0xC3,0x5,0xC3,0x5
	.DB  0xC3,0x5,0xC2,0x5,0xC2,0x5,0xC2,0x5
	.DB  0xC2,0x5,0xC2,0x5,0xC1,0x5,0xC1,0x5
	.DB  0xC1,0x5,0xC1,0x5,0xC1,0x5,0xC1,0x5
	.DB  0xC0,0x5,0xC0,0x5,0xC0,0x5,0xC0,0x5
	.DB  0xC0,0x5,0xBF,0x5,0xBF,0x5,0xBF,0x5
	.DB  0xBF,0x5,0xBF,0x5,0xBF,0x5,0xBE,0x5
	.DB  0xBE,0x5,0xBE,0x5,0xBE,0x5,0xBE,0x5
	.DB  0xBE,0x5,0xBD,0x5,0xBD,0x5,0xBD,0x5
	.DB  0xBD,0x5,0xBD,0x5,0xBC,0x5,0xBC,0x5
	.DB  0xBC,0x5,0xBC,0x5,0xBC,0x5,0xBC,0x5
	.DB  0xBB,0x5,0xBB,0x5,0xBB,0x5,0xBB,0x5
	.DB  0xBB,0x5,0xBA,0x5,0xBA,0x5,0xBA,0x5
	.DB  0xBA,0x5,0xBA,0x5,0xBA,0x5,0xB9,0x5
	.DB  0xB9,0x5,0xB9,0x5,0xB9,0x5,0xB9,0x5
	.DB  0xB8,0x5,0xB8,0x5,0xB8,0x5,0xB8,0x5
	.DB  0xB8,0x5,0xB8,0x5,0xB7,0x5,0xB7,0x5
	.DB  0xB7,0x5,0xB7,0x5,0xB7,0x5,0xB7,0x5
	.DB  0xB6,0x5,0xB6,0x5,0xB6,0x5,0xB6,0x5
	.DB  0xB6,0x5,0xB5,0x5,0xB5,0x5,0xB5,0x5
	.DB  0xB5,0x5,0xB5,0x5,0xB5,0x5,0xB4,0x5
	.DB  0xB4,0x5,0xB4,0x5,0xB4,0x5,0xB4,0x5
	.DB  0xB4,0x5,0xB3,0x5,0xB3,0x5,0xB3,0x5
	.DB  0xB3,0x5,0xB3,0x5,0xB3,0x5,0xB2,0x5
	.DB  0xB2,0x5,0xB2,0x5,0xB2,0x5,0xB2,0x5
	.DB  0xB1,0x5,0xB1,0x5,0xB1,0x5,0xB1,0x5
	.DB  0xB1,0x5,0xB1,0x5,0xB0,0x5,0xB0,0x5
	.DB  0xB0,0x5,0xB0,0x5,0xB0,0x5,0xB0,0x5
	.DB  0xAF,0x5,0xAF,0x5,0xAF,0x5,0xAF,0x5
	.DB  0xAF,0x5,0xAF,0x5,0xAE,0x5,0xAE,0x5
	.DB  0xAE,0x5,0xAE,0x5,0xAE,0x5,0xAD,0x5
	.DB  0xAD,0x5,0xAD,0x5,0xAD,0x5,0xAD,0x5
	.DB  0xAD,0x5,0xAC,0x5,0xAC,0x5,0xAC,0x5
	.DB  0xAC,0x5,0xAC,0x5,0xAC,0x5,0xAB,0x5
	.DB  0xAB,0x5,0xAB,0x5,0xAB,0x5,0xAB,0x5
	.DB  0xAB,0x5,0xAA,0x5,0xAA,0x5,0xAA,0x5
	.DB  0xAA,0x5,0xAA,0x5,0xAA,0x5,0xA9,0x5
	.DB  0xA9,0x5,0xA9,0x5,0xA9,0x5,0xA9,0x5
	.DB  0xA9,0x5,0xA8,0x5,0xA8,0x5,0xA8,0x5
	.DB  0xA8,0x5,0xA8,0x5,0xA7,0x5,0xA7,0x5
	.DB  0xA7,0x5,0xA7,0x5,0xA7,0x5,0xA7,0x5
	.DB  0xA6,0x5,0xA6,0x5,0xA6,0x5,0xA6,0x5
	.DB  0xA6,0x5,0xA6,0x5,0xA5,0x5,0xA5,0x5
	.DB  0xA5,0x5,0xA5,0x5,0xA5,0x5,0xA5,0x5
	.DB  0xA4,0x5,0xA4,0x5,0xA4,0x5,0xA4,0x5
	.DB  0xA4,0x5,0xA4,0x5,0xA3,0x5,0xA3,0x5
	.DB  0xA3,0x5,0xA3,0x5,0xA3,0x5,0xA3,0x5
	.DB  0xA2,0x5,0xA2,0x5,0xA2,0x5,0xA2,0x5
	.DB  0xA2,0x5,0xA2,0x5,0xA1,0x5,0xA1,0x5
	.DB  0xA1,0x5,0xA1,0x5,0xA1,0x5,0xA1,0x5
	.DB  0xA0,0x5,0xA0,0x5,0xA0,0x5,0xA0,0x5
	.DB  0xA0,0x5,0xA0,0x5,0x9F,0x5,0x9F,0x5
	.DB  0x9F,0x5,0x9F,0x5,0x9F,0x5,0x9F,0x5
	.DB  0x9E,0x5,0x9E,0x5,0x9E,0x5,0x9E,0x5
	.DB  0x9E,0x5,0x9E,0x5,0x9D,0x5,0x9D,0x5
	.DB  0x9D,0x5,0x9D,0x5,0x9D,0x5,0x9D,0x5
	.DB  0x9C,0x5,0x9C,0x5,0x9C,0x5,0x9C,0x5
	.DB  0x9C,0x5,0x9C,0x5,0x9B,0x5,0x9B,0x5
	.DB  0x9B,0x5,0x9B,0x5,0x9B,0x5,0x9B,0x5
	.DB  0x9B,0x5,0x9A,0x5,0x9A,0x5,0x9A,0x5
	.DB  0x9A,0x5,0x9A,0x5,0x9A,0x5,0x99,0x5
	.DB  0x99,0x5,0x99,0x5,0x99,0x5,0x99,0x5
	.DB  0x99,0x5,0x98,0x5,0x98,0x5,0x98,0x5
	.DB  0x98,0x5,0x98,0x5,0x98,0x5,0x97,0x5
	.DB  0x97,0x5,0x97,0x5,0x97,0x5,0x97,0x5
	.DB  0x97,0x5,0x96,0x5,0x96,0x5,0x96,0x5
	.DB  0x96,0x5,0x96,0x5,0x96,0x5,0x95,0x5
	.DB  0x95,0x5,0x95,0x5,0x95,0x5,0x95,0x5
	.DB  0x95,0x5,0x95,0x5,0x94,0x5,0x94,0x5
	.DB  0x94,0x5,0x94,0x5,0x94,0x5,0x94,0x5
	.DB  0x93,0x5,0x93,0x5,0x93,0x5,0x93,0x5
	.DB  0x93,0x5,0x93,0x5,0x92,0x5,0x92,0x5
	.DB  0x92,0x5,0x92,0x5,0x92,0x5,0x92,0x5
	.DB  0x91,0x5,0x91,0x5,0x91,0x5,0x91,0x5
	.DB  0x91,0x5,0x91,0x5,0x91,0x5,0x90,0x5
	.DB  0x90,0x5,0x90,0x5,0x90,0x5,0x90,0x5
	.DB  0x90,0x5,0x8F,0x5,0x8F,0x5,0x8F,0x5
	.DB  0x8F,0x5,0x8F,0x5,0x8F,0x5,0x8E,0x5
	.DB  0x8E,0x5,0x8E,0x5,0x8E,0x5,0x8E,0x5
	.DB  0x8E,0x5,0x8E,0x5,0x8D,0x5,0x8D,0x5
	.DB  0x8D,0x5,0x8D,0x5,0x8D,0x5,0x8D,0x5
	.DB  0x8C,0x5,0x8C,0x5,0x8C,0x5,0x8C,0x5
	.DB  0x8C,0x5,0x8C,0x5,0x8B,0x5,0x8B,0x5
	.DB  0x8B,0x5,0x8B,0x5,0x8B,0x5,0x8B,0x5
	.DB  0x8B,0x5,0x8A,0x5,0x8A,0x5,0x8A,0x5
	.DB  0x8A,0x5,0x8A,0x5,0x8A,0x5,0x89,0x5
	.DB  0x89,0x5,0x89,0x5,0x89,0x5,0x89,0x5
	.DB  0x89,0x5,0x89,0x5,0x88,0x5,0x88,0x5
	.DB  0x88,0x5,0x88,0x5,0x88,0x5,0x88,0x5
	.DB  0x87,0x5,0x87,0x5,0x87,0x5,0x87,0x5
	.DB  0x87,0x5,0x87,0x5,0x87,0x5,0x86,0x5
	.DB  0x86,0x5,0x86,0x5,0x86,0x5,0x86,0x5
	.DB  0x86,0x5,0x85,0x5,0x85,0x5,0x85,0x5
	.DB  0x85,0x5,0x85,0x5,0x85,0x5,0x85,0x5
	.DB  0x84,0x5,0x84,0x5,0x84,0x5,0x84,0x5
	.DB  0x84,0x5,0x84,0x5,0x83,0x5,0x83,0x5
	.DB  0x83,0x5,0x83,0x5,0x83,0x5,0x83,0x5
	.DB  0x83,0x5,0x82,0x5,0x82,0x5,0x82,0x5
	.DB  0x82,0x5,0x82,0x5,0x82,0x5,0x81,0x5
	.DB  0x81,0x5,0x81,0x5,0x81,0x5,0x81,0x5
	.DB  0x81,0x5,0x81,0x5,0x80,0x5,0x80,0x5
	.DB  0x80,0x5,0x80,0x5,0x80,0x5,0x80,0x5
	.DB  0x7F,0x5,0x7F,0x5,0x7F,0x5,0x7F,0x5
	.DB  0x7F,0x5,0x7F,0x5,0x7F,0x5,0x7E,0x5
	.DB  0x7E,0x5,0x7E,0x5,0x7E,0x5,0x7E,0x5
	.DB  0x7E,0x5,0x7E,0x5,0x7D,0x5,0x7D,0x5
	.DB  0x7D,0x5,0x7D,0x5,0x7D,0x5,0x7D,0x5
	.DB  0x7C,0x5,0x7C,0x5,0x7C,0x5,0x7C,0x5
	.DB  0x7C,0x5,0x7C,0x5,0x7C,0x5,0x7B,0x5
	.DB  0x7B,0x5,0x7B,0x5,0x7B,0x5,0x7B,0x5
	.DB  0x7B,0x5,0x7B,0x5,0x7A,0x5,0x7A,0x5
	.DB  0x7A,0x5,0x7A,0x5,0x7A,0x5,0x7A,0x5
	.DB  0x79,0x5,0x79,0x5,0x79,0x5,0x79,0x5
	.DB  0x79,0x5,0x79,0x5,0x79,0x5,0x78,0x5
	.DB  0x78,0x5,0x78,0x5,0x78,0x5,0x78,0x5
	.DB  0x78,0x5,0x78,0x5,0x77,0x5,0x77,0x5
	.DB  0x77,0x5,0x77,0x5,0x77,0x5,0x77,0x5
	.DB  0x77,0x5,0x76,0x5,0x76,0x5,0x76,0x5
	.DB  0x76,0x5,0x76,0x5,0x76,0x5,0x75,0x5
	.DB  0x75,0x5,0x75,0x5,0x75,0x5,0x75,0x5
	.DB  0x75,0x5,0x75,0x5,0x74,0x5,0x74,0x5
	.DB  0x74,0x5,0x74,0x5,0x74,0x5,0x74,0x5
	.DB  0x74,0x5,0x73,0x5,0x73,0x5,0x73,0x5
	.DB  0x73,0x5,0x73,0x5,0x73,0x5,0x73,0x5
	.DB  0x72,0x5,0x72,0x5,0x72,0x5,0x72,0x5
	.DB  0x72,0x5,0x72,0x5,0x72,0x5,0x71,0x5
	.DB  0x71,0x5,0x71,0x5,0x71,0x5,0x71,0x5
	.DB  0x71,0x5,0x71,0x5,0x70,0x5,0x70,0x5
	.DB  0x70,0x5,0x70,0x5,0x70,0x5,0x70,0x5
	.DB  0x70,0x5,0x6F,0x5,0x6F,0x5,0x6F,0x5
	.DB  0x6F,0x5,0x6F,0x5,0x6F,0x5,0x6F,0x5
	.DB  0x6E,0x5,0x6E,0x5,0x6E,0x5,0x6E,0x5
	.DB  0x6E,0x5,0x6E,0x5,0x6E,0x5,0x6D,0x5
	.DB  0x6D,0x5,0x6D,0x5,0x6D,0x5,0x6D,0x5
	.DB  0x6D,0x5,0x6D,0x5,0x6C,0x5,0x6C,0x5
	.DB  0x6C,0x5,0x6C,0x5,0x6C,0x5,0x6C,0x5
	.DB  0x6C,0x5,0x6B,0x5,0x6B,0x5,0x6B,0x5
	.DB  0x6B,0x5,0x6B,0x5,0x6B,0x5,0x6B,0x5
	.DB  0x6A,0x5,0x6A,0x5,0x6A,0x5,0x6A,0x5
	.DB  0x6A,0x5,0x6A,0x5,0x6A,0x5,0x69,0x5
	.DB  0x69,0x5,0x69,0x5,0x69,0x5,0x69,0x5
	.DB  0x69,0x5,0x69,0x5,0x68,0x5,0x68,0x5
	.DB  0x68,0x5,0x68,0x5,0x68,0x5,0x68,0x5
	.DB  0x68,0x5,0x67,0x5,0x67,0x5,0x67,0x5
	.DB  0x67,0x5,0x67,0x5,0x67,0x5,0x67,0x5
	.DB  0x66,0x5,0x66,0x5,0x66,0x5,0x66,0x5
	.DB  0x66,0x5,0x66,0x5,0x66,0x5,0x65,0x5
	.DB  0x65,0x5,0x65,0x5,0x65,0x5,0x65,0x5
	.DB  0x65,0x5,0x65,0x5,0x64,0x5,0x64,0x5
	.DB  0x64,0x5,0x64,0x5,0x64,0x5,0x64,0x5
	.DB  0x64,0x5,0x63,0x5,0x63,0x5,0x63,0x5
	.DB  0x63,0x5,0x63,0x5,0x63,0x5,0x63,0x5
	.DB  0x63,0x5,0x62,0x5,0x62,0x5,0x62,0x5
	.DB  0x62,0x5,0x62,0x5,0x62,0x5,0x62,0x5
	.DB  0x61,0x5,0x61,0x5,0x61,0x5,0x61,0x5
	.DB  0x61,0x5,0x61,0x5,0x61,0x5,0x60,0x5
	.DB  0x60,0x5,0x60,0x5,0x60,0x5,0x60,0x5
	.DB  0x60,0x5,0x60,0x5,0x5F,0x5,0x5F,0x5
	.DB  0x5F,0x5,0x5F,0x5,0x5F,0x5,0x5F,0x5
	.DB  0x5F,0x5,0x5F,0x5,0x5E,0x5,0x5E,0x5
	.DB  0x5E,0x5,0x5E,0x5,0x5E,0x5,0x5E,0x5
	.DB  0x5E,0x5,0x5D,0x5,0x5D,0x5,0x5D,0x5
	.DB  0x5D,0x5,0x5D,0x5,0x5D,0x5,0x5D,0x5
	.DB  0x5C,0x5,0x5C,0x5,0x5C,0x5,0x5C,0x5
	.DB  0x5C,0x5,0x5C,0x5,0x5C,0x5,0x5B,0x5
	.DB  0x5B,0x5,0x5B,0x5,0x5B,0x5,0x5B,0x5
	.DB  0x5B,0x5,0x5B,0x5,0x5B,0x5,0x5A,0x5
	.DB  0x5A,0x5,0x5A,0x5,0x5A,0x5,0x5A,0x5
	.DB  0x5A,0x5,0x5A,0x5,0x59,0x5,0x59,0x5
	.DB  0x59,0x5,0x59,0x5,0x59,0x5,0x59,0x5
	.DB  0x59,0x5,0x59,0x5,0x58,0x5,0x58,0x5
	.DB  0x58,0x5,0x58,0x5,0x58,0x5,0x58,0x5
	.DB  0x58,0x5,0x57,0x5,0x57,0x5,0x57,0x5
	.DB  0x57,0x5,0x57,0x5,0x57,0x5,0x57,0x5
	.DB  0x57,0x5,0x56,0x5,0x56,0x5,0x56,0x5
	.DB  0x56,0x5,0x56,0x5,0x56,0x5,0x56,0x5
	.DB  0x55,0x5,0x55,0x5,0x55,0x5,0x55,0x5
	.DB  0x55,0x5,0x55,0x5,0x55,0x5,0x55,0x5
	.DB  0x54,0x5,0x54,0x5,0x54,0x5,0x54,0x5
	.DB  0x54,0x5,0x54,0x5,0x54,0x5,0x53,0x5
	.DB  0x53,0x5,0x53,0x5,0x53,0x5,0x53,0x5
	.DB  0x53,0x5,0x53,0x5,0x53,0x5,0x52,0x5
	.DB  0x52,0x5,0x52,0x5,0x52,0x5,0x52,0x5
	.DB  0x52,0x5,0x52,0x5,0x51,0x5,0x51,0x5
	.DB  0x51,0x5,0x51,0x5,0x51,0x5,0x51,0x5
	.DB  0x51,0x5,0x51,0x5,0x50,0x5,0x50,0x5
	.DB  0x50,0x5,0x50,0x5,0x50,0x5,0x50,0x5
	.DB  0x50,0x5,0x4F,0x5,0x4F,0x5,0x4F,0x5
	.DB  0x4F,0x5,0x4F,0x5,0x4F,0x5,0x4F,0x5
	.DB  0x4F,0x5,0x4E,0x5,0x4E,0x5,0x4E,0x5
	.DB  0x4E,0x5,0x4E,0x5,0x4E,0x5,0x4E,0x5
	.DB  0x4E,0x5,0x4D,0x5,0x4D,0x5,0x4D,0x5
	.DB  0x4D,0x5,0x4D,0x5,0x4D,0x5,0x4D,0x5
	.DB  0x4C,0x5,0x4C,0x5,0x4C,0x5,0x4C,0x5
	.DB  0x4C,0x5,0x4C,0x5,0x4C,0x5,0x4C,0x5
	.DB  0x4B,0x5,0x4B,0x5,0x4B,0x5,0x4B,0x5
	.DB  0x4B,0x5,0x4B,0x5,0x4B,0x5,0x4B,0x5
	.DB  0x4A,0x5,0x4A,0x5,0x4A,0x5,0x4A,0x5
	.DB  0x4A,0x5,0x4A,0x5,0x4A,0x5,0x49,0x5
	.DB  0x49,0x5,0x49,0x5,0x49,0x5,0x49,0x5
	.DB  0x49,0x5,0x49,0x5,0x49,0x5,0x48,0x5
	.DB  0x48,0x5,0x48,0x5,0x48,0x5,0x48,0x5
	.DB  0x48,0x5,0x48,0x5,0x48,0x5,0x47,0x5
	.DB  0x47,0x5,0x47,0x5,0x47,0x5,0x47,0x5
	.DB  0x47,0x5,0x47,0x5,0x47,0x5,0x46,0x5
	.DB  0x46,0x5,0x46,0x5,0x46,0x5,0x46,0x5
	.DB  0x46,0x5,0x46,0x5,0x46,0x5,0x45,0x5
	.DB  0x45,0x5,0x45,0x5,0x45,0x5,0x45,0x5
	.DB  0x45,0x5,0x45,0x5,0x45,0x5,0x44,0x5
	.DB  0x44,0x5,0x44,0x5,0x44,0x5,0x44,0x5
	.DB  0x44,0x5,0x44,0x5,0x43,0x5,0x43,0x5
	.DB  0x43,0x5,0x43,0x5,0x43,0x5,0x43,0x5
	.DB  0x43,0x5,0x43,0x5,0x42,0x5,0x42,0x5
	.DB  0x42,0x5,0x42,0x5,0x42,0x5,0x42,0x5
	.DB  0x42,0x5,0x42,0x5,0x41,0x5,0x41,0x5
	.DB  0x41,0x5,0x41,0x5,0x41,0x5,0x41,0x5
	.DB  0x41,0x5,0x41,0x5,0x40,0x5,0x40,0x5
	.DB  0x40,0x5,0x40,0x5,0x40,0x5,0x40,0x5
	.DB  0x40,0x5,0x40,0x5,0x3F,0x5,0x3F,0x5
	.DB  0x3F,0x5,0x3F,0x5,0x3F,0x5,0x3F,0x5
	.DB  0x3F,0x5,0x3F,0x5,0x3E,0x5,0x3E,0x5
	.DB  0x3E,0x5,0x3E,0x5,0x3E,0x5,0x3E,0x5
	.DB  0x3E,0x5,0x3E,0x5,0x3D,0x5,0x3D,0x5
	.DB  0x3D,0x5,0x3D,0x5,0x3D,0x5,0x3D,0x5
	.DB  0x3D,0x5,0x3D,0x5,0x3C,0x5,0x3C,0x5
	.DB  0x3C,0x5,0x3C,0x5,0x3C,0x5,0x3C,0x5
	.DB  0x3C,0x5,0x3C,0x5,0x3B,0x5,0x3B,0x5
	.DB  0x3B,0x5,0x3B,0x5,0x3B,0x5,0x3B,0x5
	.DB  0x3B,0x5,0x3B,0x5,0x3B,0x5,0x3A,0x5
	.DB  0x3A,0x5,0x3A,0x5,0x3A,0x5,0x3A,0x5
	.DB  0x3A,0x5,0x3A,0x5,0x3A,0x5,0x39,0x5
	.DB  0x39,0x5,0x39,0x5,0x39,0x5,0x39,0x5
	.DB  0x39,0x5,0x39,0x5,0x39,0x5,0x38,0x5
	.DB  0x38,0x5,0x38,0x5,0x38,0x5,0x38,0x5
	.DB  0x38,0x5,0x38,0x5,0x38,0x5,0x37,0x5
	.DB  0x37,0x5,0x37,0x5,0x37,0x5,0x37,0x5
	.DB  0x37,0x5,0x37,0x5,0x37,0x5,0x36,0x5
	.DB  0x36,0x5,0x36,0x5,0x36,0x5,0x36,0x5
	.DB  0x36,0x5,0x36,0x5,0x36,0x5,0x35,0x5
	.DB  0x35,0x5,0x35,0x5,0x35,0x5,0x35,0x5
	.DB  0x35,0x5,0x35,0x5,0x35,0x5,0x35,0x5
	.DB  0x34,0x5,0x34,0x5,0x34,0x5,0x34,0x5
	.DB  0x34,0x5,0x34,0x5,0x34,0x5,0x34,0x5
	.DB  0x33,0x5,0x33,0x5,0x33,0x5,0x33,0x5
	.DB  0x33,0x5,0x33,0x5,0x33,0x5,0x33,0x5
	.DB  0x32,0x5,0x32,0x5,0x32,0x5,0x32,0x5
	.DB  0x32,0x5,0x32,0x5,0x32,0x5,0x32,0x5
	.DB  0x32,0x5,0x31,0x5,0x31,0x5,0x31,0x5
	.DB  0x31,0x5,0x31,0x5,0x31,0x5,0x31,0x5
	.DB  0x31,0x5,0x30,0x5,0x30,0x5,0x30,0x5
	.DB  0x30,0x5,0x30,0x5,0x30,0x5,0x30,0x5
	.DB  0x30,0x5,0x2F,0x5,0x2F,0x5,0x2F,0x5
	.DB  0x2F,0x5,0x2F,0x5,0x2F,0x5,0x2F,0x5
	.DB  0x2F,0x5,0x2F,0x5,0x2E,0x5,0x2E,0x5
	.DB  0x2E,0x5,0x2E,0x5,0x2E,0x5,0x2E,0x5
	.DB  0x2E,0x5,0x2E,0x5,0x2D,0x5,0x2D,0x5
	.DB  0x2D,0x5,0x2D,0x5,0x2D,0x5,0x2D,0x5
	.DB  0x2D,0x5,0x2D,0x5,0x2D,0x5,0x2C,0x5
	.DB  0x2C,0x5,0x2C,0x5,0x2C,0x5,0x2C,0x5
	.DB  0x2C,0x5,0x2C,0x5,0x2C,0x5,0x2B,0x5
	.DB  0x2B,0x5,0x2B,0x5,0x2B,0x5,0x2B,0x5
	.DB  0x2B,0x5,0x2B,0x5,0x2B,0x5,0x2B,0x5
	.DB  0x2A,0x5,0x2A,0x5,0x2A,0x5,0x2A,0x5
	.DB  0x2A,0x5,0x2A,0x5,0x2A,0x5,0x2A,0x5
	.DB  0x29,0x5,0x29,0x5,0x29,0x5,0x29,0x5
	.DB  0x29,0x5,0x29,0x5,0x29,0x5,0x29,0x5
	.DB  0x29,0x5,0x28,0x5,0x28,0x5,0x28,0x5
	.DB  0x28,0x5,0x28,0x5,0x28,0x5,0x28,0x5
	.DB  0x28,0x5,0x27,0x5,0x27,0x5,0x27,0x5
	.DB  0x27,0x5,0x27,0x5,0x27,0x5,0x27,0x5
	.DB  0x27,0x5,0x27,0x5,0x26,0x5,0x26,0x5
	.DB  0x26,0x5,0x26,0x5,0x26,0x5,0x26,0x5
	.DB  0x26,0x5,0x26,0x5,0x26,0x5,0x25,0x5
	.DB  0x25,0x5,0x25,0x5,0x25,0x5,0x25,0x5
	.DB  0x25,0x5,0x25,0x5,0x25,0x5,0x24,0x5
	.DB  0x24,0x5,0x24,0x5,0x24,0x5,0x24,0x5
	.DB  0x24,0x5,0x24,0x5,0x24,0x5,0x24,0x5
	.DB  0x23,0x5,0x23,0x5,0x23,0x5,0x23,0x5
	.DB  0x23,0x5,0x23,0x5,0x23,0x5,0x23,0x5
	.DB  0x23,0x5,0x22,0x5,0x22,0x5,0x22,0x5
	.DB  0x22,0x5,0x22,0x5,0x22,0x5,0x22,0x5
	.DB  0x22,0x5,0x21,0x5,0x21,0x5,0x21,0x5
	.DB  0x21,0x5,0x21,0x5,0x21,0x5,0x21,0x5
	.DB  0x21,0x5,0x21,0x5,0x20,0x5,0x20,0x5
	.DB  0x20,0x5,0x20,0x5,0x20,0x5,0x20,0x5
	.DB  0x20,0x5,0x20,0x5,0x20,0x5,0x1F,0x5
	.DB  0x1F,0x5,0x1F,0x5,0x1F,0x5,0x1F,0x5
	.DB  0x1F,0x5,0x1F,0x5,0x1F,0x5,0x1F,0x5
	.DB  0x1E,0x5,0x1E,0x5,0x1E,0x5,0x1E,0x5
	.DB  0x1E,0x5,0x1E,0x5,0x1E,0x5,0x1E,0x5
	.DB  0x1E,0x5,0x1D,0x5,0x1D,0x5,0x1D,0x5
	.DB  0x1D,0x5,0x1D,0x5,0x1D,0x5,0x1D,0x5
	.DB  0x1D,0x5,0x1D,0x5,0x1C,0x5,0x1C,0x5
	.DB  0x1C,0x5,0x1C,0x5,0x1C,0x5,0x1C,0x5
	.DB  0x1C,0x5,0x1C,0x5,0x1B,0x5,0x1B,0x5
	.DB  0x1B,0x5,0x1B,0x5,0x1B,0x5,0x1B,0x5
	.DB  0x1B,0x5,0x1B,0x5,0x1B,0x5,0x1A,0x5
	.DB  0x1A,0x5,0x1A,0x5,0x1A,0x5,0x1A,0x5
	.DB  0x1A,0x5,0x1A,0x5,0x1A,0x5,0x1A,0x5
	.DB  0x19,0x5,0x19,0x5,0x19,0x5,0x19,0x5
	.DB  0x19,0x5,0x19,0x5,0x19,0x5,0x19,0x5
	.DB  0x19,0x5,0x18,0x5,0x18,0x5,0x18,0x5
	.DB  0x18,0x5,0x18,0x5,0x18,0x5,0x18,0x5
	.DB  0x18,0x5,0x18,0x5,0x17,0x5,0x17,0x5
	.DB  0x17,0x5,0x17,0x5,0x17,0x5,0x17,0x5
	.DB  0x17,0x5,0x17,0x5,0x17,0x5,0x16,0x5
	.DB  0x16,0x5,0x16,0x5,0x16,0x5,0x16,0x5
	.DB  0x16,0x5,0x16,0x5,0x16,0x5,0x16,0x5
	.DB  0x15,0x5,0x15,0x5,0x15,0x5,0x15,0x5
	.DB  0x15,0x5,0x15,0x5,0x15,0x5,0x15,0x5
	.DB  0x15,0x5,0x14,0x5,0x14,0x5,0x14,0x5
	.DB  0x14,0x5,0x14,0x5,0x14,0x5,0x14,0x5
	.DB  0x14,0x5,0x14,0x5,0x14,0x5,0x13,0x5
	.DB  0x13,0x5,0x13,0x5,0x13,0x5,0x13,0x5
	.DB  0x13,0x5,0x13,0x5,0x13,0x5,0x13,0x5
	.DB  0x12,0x5,0x12,0x5,0x12,0x5,0x12,0x5
	.DB  0x12,0x5,0x12,0x5,0x12,0x5,0x12,0x5
	.DB  0x12,0x5,0x11,0x5,0x11,0x5,0x11,0x5
	.DB  0x11,0x5,0x11,0x5,0x11,0x5,0x11,0x5
	.DB  0x11,0x5,0x11,0x5,0x10,0x5,0x10,0x5
	.DB  0x10,0x5,0x10,0x5,0x10,0x5,0x10,0x5
	.DB  0x10,0x5,0x10,0x5,0x10,0x5,0xF,0x5
	.DB  0xF,0x5,0xF,0x5,0xF,0x5,0xF,0x5
	.DB  0xF,0x5,0xF,0x5,0xF,0x5,0xF,0x5
	.DB  0xE,0x5,0xE,0x5,0xE,0x5,0xE,0x5
	.DB  0xE,0x5,0xE,0x5,0xE,0x5,0xE,0x5
	.DB  0xE,0x5,0xE,0x5,0xD,0x5,0xD,0x5
	.DB  0xD,0x5,0xD,0x5,0xD,0x5,0xD,0x5
	.DB  0xD,0x5,0xD,0x5,0xD,0x5,0xC,0x5
	.DB  0xC,0x5,0xC,0x5,0xC,0x5,0xC,0x5
	.DB  0xC,0x5,0xC,0x5,0xC,0x5,0xC,0x5
	.DB  0xB,0x5,0xB,0x5,0xB,0x5,0xB,0x5
	.DB  0xB,0x5,0xB,0x5,0xB,0x5,0xB,0x5
	.DB  0xB,0x5,0xB,0x5,0xA,0x5,0xA,0x5
	.DB  0xA,0x5,0xA,0x5,0xA,0x5,0xA,0x5
	.DB  0xA,0x5,0xA,0x5,0xA,0x5,0x9,0x5
	.DB  0x9,0x5,0x9,0x5,0x9,0x5,0x9,0x5
	.DB  0x9,0x5,0x9,0x5,0x9,0x5,0x9,0x5
	.DB  0x8,0x5,0x8,0x5,0x8,0x5,0x8,0x5
	.DB  0x8,0x5,0x8,0x5,0x8,0x5,0x8,0x5
	.DB  0x8,0x5,0x8,0x5,0x7,0x5,0x7,0x5
	.DB  0x7,0x5,0x7,0x5,0x7,0x5,0x7,0x5
	.DB  0x7,0x5,0x7,0x5,0x7,0x5,0x6,0x5
	.DB  0x6,0x5,0x6,0x5,0x6,0x5,0x6,0x5
	.DB  0x6,0x5,0x6,0x5,0x6,0x5,0x6,0x5
	.DB  0x6,0x5,0x5,0x5,0x5,0x5,0x5,0x5
	.DB  0x5,0x5,0x5,0x5,0x5,0x5,0x5,0x5
	.DB  0x5,0x5,0x5,0x5,0x4,0x5,0x4,0x5
	.DB  0x4,0x5,0x4,0x5,0x4,0x5,0x4,0x5
	.DB  0x4,0x5,0x4,0x5,0x4,0x5,0x4,0x5
	.DB  0x3,0x5,0x3,0x5,0x3,0x5,0x3,0x5
	.DB  0x3,0x5,0x3,0x5,0x3,0x5,0x3,0x5
	.DB  0x3,0x5,0x3,0x5,0x2,0x5,0x2,0x5
	.DB  0x2,0x5,0x2,0x5,0x2,0x5,0x2,0x5
	.DB  0x2,0x5,0x2,0x5,0x2,0x5,0x1,0x5
	.DB  0x1,0x5,0x1,0x5,0x1,0x5,0x1,0x5
	.DB  0x1,0x5,0x1,0x5,0x1,0x5,0x1,0x5
	.DB  0x1,0x5,0x0,0x5,0x0,0x5,0x0,0x5
	.DB  0x0,0x5,0x0,0x5,0x0,0x5,0x0,0x5
	.DB  0x0,0x5,0x0,0x5,0xFF,0x4,0xFF,0x4
	.DB  0xFF,0x4,0xFF,0x4,0xFF,0x4,0xFF,0x4
	.DB  0xFF,0x4,0xFF,0x4,0xFF,0x4,0xFF,0x4
	.DB  0xFE,0x4,0xFE,0x4,0xFE,0x4,0xFE,0x4
	.DB  0xFE,0x4,0xFE,0x4,0xFE,0x4,0xFE,0x4
	.DB  0xFE,0x4,0xFE,0x4,0xFD,0x4,0xFD,0x4
	.DB  0xFD,0x4,0xFD,0x4,0xFD,0x4,0xFD,0x4
	.DB  0xFD,0x4,0xFD,0x4,0xFD,0x4,0xFC,0x4
	.DB  0xFC,0x4,0xFC,0x4,0xFC,0x4,0xFC,0x4
	.DB  0xFC,0x4,0xFC,0x4,0xFC,0x4,0xFC,0x4
	.DB  0xFC,0x4,0xFB,0x4,0xFB,0x4,0xFB,0x4
	.DB  0xFB,0x4,0xFB,0x4,0xFB,0x4,0xFB,0x4
	.DB  0xFB,0x4,0xFB,0x4,0xFB,0x4,0xFA,0x4
	.DB  0xFA,0x4,0xFA,0x4,0xFA,0x4,0xFA,0x4
	.DB  0xFA,0x4,0xFA,0x4,0xFA,0x4,0xFA,0x4
	.DB  0xFA,0x4,0xF9,0x4,0xF9,0x4,0xF9,0x4
	.DB  0xF9,0x4,0xF9,0x4,0xF9,0x4,0xF9,0x4
	.DB  0xF9,0x4,0xF9,0x4,0xF9,0x4,0xF8,0x4
	.DB  0xF8,0x4,0xF8,0x4,0xF8,0x4,0xF8,0x4
	.DB  0xF8,0x4,0xF8,0x4,0xF8,0x4,0xF8,0x4
	.DB  0xF8,0x4,0xF7,0x4,0xF7,0x4,0xF7,0x4
	.DB  0xF7,0x4,0xF7,0x4,0xF7,0x4,0xF7,0x4
	.DB  0xF7,0x4,0xF7,0x4,0xF6,0x4,0xF6,0x4
	.DB  0xF6,0x4,0xF6,0x4,0xF6,0x4,0xF6,0x4
	.DB  0xF6,0x4,0xF6,0x4,0xF6,0x4,0xF6,0x4
	.DB  0xF5,0x4,0xF5,0x4,0xF5,0x4,0xF5,0x4
	.DB  0xF5,0x4,0xF5,0x4,0xF5,0x4,0xF5,0x4
	.DB  0xF5,0x4,0xF5,0x4,0xF4,0x4,0xF4,0x4
	.DB  0xF4,0x4,0xF4,0x4,0xF4,0x4,0xF4,0x4
	.DB  0xF4,0x4,0xF4,0x4,0xF4,0x4,0xF4,0x4
	.DB  0xF3,0x4,0xF3,0x4,0xF3,0x4,0xF3,0x4
	.DB  0xF3,0x4,0xF3,0x4,0xF3,0x4,0xF3,0x4
	.DB  0xF3,0x4,0xF3,0x4,0xF2,0x4,0xF2,0x4
	.DB  0xF2,0x4,0xF2,0x4,0xF2,0x4,0xF2,0x4
	.DB  0xF2,0x4,0xF2,0x4,0xF2,0x4,0xF2,0x4
	.DB  0xF1,0x4,0xF1,0x4,0xF1,0x4,0xF1,0x4
	.DB  0xF1,0x4,0xF1,0x4,0xF1,0x4,0xF1,0x4
	.DB  0xF1,0x4,0xF1,0x4,0xF0,0x4,0xF0,0x4
	.DB  0xF0,0x4,0xF0,0x4,0xF0,0x4,0xF0,0x4
	.DB  0xF0,0x4,0xF0,0x4,0xF0,0x4,0xF0,0x4
	.DB  0xF0,0x4,0xEF,0x4,0xEF,0x4,0xEF,0x4
	.DB  0xEF,0x4,0xEF,0x4,0xEF,0x4,0xEF,0x4
	.DB  0xEF,0x4,0xEF,0x4,0xEF,0x4,0xEE,0x4
	.DB  0xEE,0x4,0xEE,0x4,0xEE,0x4,0xEE,0x4
	.DB  0xEE,0x4,0xEE,0x4,0xEE,0x4,0xEE,0x4
	.DB  0xEE,0x4,0xED,0x4,0xED,0x4,0xED,0x4
	.DB  0xED,0x4,0xED,0x4,0xED,0x4,0xED,0x4
	.DB  0xED,0x4,0xED,0x4,0xED,0x4,0xEC,0x4
	.DB  0xEC,0x4,0xEC,0x4,0xEC,0x4,0xEC,0x4
	.DB  0xEC,0x4,0xEC,0x4,0xEC,0x4,0xEC,0x4
	.DB  0xEC,0x4,0xEB,0x4,0xEB,0x4,0xEB,0x4
	.DB  0xEB,0x4,0xEB,0x4,0xEB,0x4,0xEB,0x4
	.DB  0xEB,0x4,0xEB,0x4,0xEB,0x4,0xEA,0x4
	.DB  0xEA,0x4,0xEA,0x4,0xEA,0x4,0xEA,0x4
	.DB  0xEA,0x4,0xEA,0x4,0xEA,0x4,0xEA,0x4
	.DB  0xEA,0x4,0xEA,0x4,0xE9,0x4,0xE9,0x4
	.DB  0xE9,0x4,0xE9,0x4,0xE9,0x4,0xE9,0x4
	.DB  0xE9,0x4,0xE9,0x4,0xE9,0x4,0xE9,0x4
	.DB  0xE8,0x4,0xE8,0x4,0xE8,0x4,0xE8,0x4
	.DB  0xE8,0x4,0xE8,0x4,0xE8,0x4,0xE8,0x4
	.DB  0xE8,0x4,0xE8,0x4,0xE7,0x4,0xE7,0x4
	.DB  0xE7,0x4,0xE7,0x4,0xE7,0x4,0xE7,0x4
	.DB  0xE7,0x4,0xE7,0x4,0xE7,0x4,0xE7,0x4
	.DB  0xE7,0x4,0xE6,0x4,0xE6,0x4,0xE6,0x4
	.DB  0xE6,0x4,0xE6,0x4,0xE6,0x4,0xE6,0x4
	.DB  0xE6,0x4,0xE6,0x4,0xE6,0x4,0xE5,0x4
	.DB  0xE5,0x4,0xE5,0x4,0xE5,0x4,0xE5,0x4
	.DB  0xE5,0x4,0xE5,0x4,0xE5,0x4,0xE5,0x4
	.DB  0xE5,0x4,0xE4,0x4,0xE4,0x4,0xE4,0x4
	.DB  0xE4,0x4,0xE4,0x4,0xE4,0x4,0xE4,0x4
	.DB  0xE4,0x4,0xE4,0x4,0xE4,0x4,0xE4,0x4
	.DB  0xE3,0x4,0xE3,0x4,0xE3,0x4,0xE3,0x4
	.DB  0xE3,0x4,0xE3,0x4,0xE3,0x4,0xE3,0x4
	.DB  0xE3,0x4,0xE3,0x4,0xE2,0x4,0xE2,0x4
	.DB  0xE2,0x4,0xE2,0x4,0xE2,0x4,0xE2,0x4
	.DB  0xE2,0x4,0xE2,0x4,0xE2,0x4,0xE2,0x4
	.DB  0xE2,0x4,0xE1,0x4,0xE1,0x4,0xE1,0x4
	.DB  0xE1,0x4,0xE1,0x4,0xE1,0x4,0xE1,0x4
	.DB  0xE1,0x4,0xE1,0x4,0xE1,0x4,0xE0,0x4
	.DB  0xE0,0x4,0xE0,0x4,0xE0,0x4,0xE0,0x4
	.DB  0xE0,0x4,0xE0,0x4,0xE0,0x4,0xE0,0x4
	.DB  0xE0,0x4,0xE0,0x4,0xDF,0x4,0xDF,0x4
	.DB  0xDF,0x4,0xDF,0x4,0xDF,0x4,0xDF,0x4
	.DB  0xDF,0x4,0xDF,0x4,0xDF,0x4,0xDF,0x4
	.DB  0xDE,0x4,0xDE,0x4,0xDE,0x4,0xDE,0x4
	.DB  0xDE,0x4,0xDE,0x4,0xDE,0x4,0xDE,0x4
	.DB  0xDE,0x4,0xDE,0x4,0xDE,0x4,0xDD,0x4
	.DB  0xDD,0x4,0xDD,0x4,0xDD,0x4,0xDD,0x4
	.DB  0xDD,0x4,0xDD,0x4,0xDD,0x4,0xDD,0x4
	.DB  0xDD,0x4,0xDC,0x4,0xDC,0x4,0xDC,0x4
	.DB  0xDC,0x4,0xDC,0x4,0xDC,0x4,0xDC,0x4
	.DB  0xDC,0x4,0xDC,0x4,0xDC,0x4,0xDC,0x4
	.DB  0xDB,0x4,0xDB,0x4,0xDB,0x4,0xDB,0x4
	.DB  0xDB,0x4,0xDB,0x4,0xDB,0x4,0xDB,0x4
	.DB  0xDB,0x4,0xDB,0x4,0xDB,0x4,0xDA,0x4
	.DB  0xDA,0x4,0xDA,0x4,0xDA,0x4,0xDA,0x4
	.DB  0xDA,0x4,0xDA,0x4,0xDA,0x4,0xDA,0x4
	.DB  0xDA,0x4,0xD9,0x4,0xD9,0x4,0xD9,0x4
	.DB  0xD9,0x4,0xD9,0x4,0xD9,0x4,0xD9,0x4
	.DB  0xD9,0x4,0xD9,0x4,0xD9,0x4,0xD9,0x4
	.DB  0xD8,0x4,0xD8,0x4,0xD8,0x4,0xD8,0x4
	.DB  0xD8,0x4,0xD8,0x4,0xD8,0x4,0xD8,0x4
	.DB  0xD8,0x4,0xD8,0x4,0xD8,0x4,0xD7,0x4
	.DB  0xD7,0x4,0xD7,0x4,0xD7,0x4,0xD7,0x4
	.DB  0xD7,0x4,0xD7,0x4,0xD7,0x4,0xD7,0x4
	.DB  0xD7,0x4,0xD7,0x4,0xD6,0x4,0xD6,0x4
	.DB  0xD6,0x4,0xD6,0x4,0xD6,0x4,0xD6,0x4
	.DB  0xD6,0x4,0xD6,0x4,0xD6,0x4,0xD6,0x4
	.DB  0xD5,0x4,0xD5,0x4,0xD5,0x4,0xD5,0x4
	.DB  0xD5,0x4,0xD5,0x4,0xD5,0x4,0xD5,0x4
	.DB  0xD5,0x4,0xD5,0x4,0xD5,0x4,0xD4,0x4
	.DB  0xD4,0x4,0xD4,0x4,0xD4,0x4,0xD4,0x4
	.DB  0xD4,0x4,0xD4,0x4,0xD4,0x4,0xD4,0x4
	.DB  0xD4,0x4,0xD4,0x4,0xD3,0x4,0xD3,0x4
	.DB  0xD3,0x4,0xD3,0x4,0xD3,0x4,0xD3,0x4
	.DB  0xD3,0x4,0xD3,0x4,0xD3,0x4,0xD3,0x4
	.DB  0xD3,0x4,0xD2,0x4,0xD2,0x4,0xD2,0x4
	.DB  0xD2,0x4,0xD2,0x4,0xD2,0x4,0xD2,0x4
	.DB  0xD2,0x4,0xD2,0x4,0xD2,0x4,0xD2,0x4
	.DB  0xD1,0x4,0xD1,0x4,0xD1,0x4,0xD1,0x4
	.DB  0xD1,0x4,0xD1,0x4,0xD1,0x4,0xD1,0x4
	.DB  0xD1,0x4,0xD1,0x4,0xD1,0x4,0xD0,0x4
	.DB  0xD0,0x4,0xD0,0x4,0xD0,0x4,0xD0,0x4
	.DB  0xD0,0x4,0xD0,0x4,0xD0,0x4,0xD0,0x4
	.DB  0xD0,0x4,0xD0,0x4,0xCF,0x4,0xCF,0x4
	.DB  0xCF,0x4,0xCF,0x4,0xCF,0x4,0xCF,0x4
	.DB  0xCF,0x4,0xCF,0x4,0xCF,0x4,0xCF,0x4
	.DB  0xCF,0x4,0xCE,0x4,0xCE,0x4,0xCE,0x4
	.DB  0xCE,0x4,0xCE,0x4,0xCE,0x4,0xCE,0x4
	.DB  0xCE,0x4,0xCE,0x4,0xCE,0x4,0xCE,0x4
	.DB  0xCD,0x4,0xCD,0x4,0xCD,0x4,0xCD,0x4
	.DB  0xCD,0x4,0xCD,0x4,0xCD,0x4,0xCD,0x4
	.DB  0xCD,0x4,0xCD,0x4,0xCD,0x4,0xCC,0x4
	.DB  0xCC,0x4,0xCC,0x4,0xCC,0x4,0xCC,0x4
	.DB  0xCC,0x4,0xCC,0x4,0xCC,0x4,0xCC,0x4
	.DB  0xCC,0x4,0xCC,0x4,0xCB,0x4,0xCB,0x4
	.DB  0xCB,0x4,0xCB,0x4,0xCB,0x4,0xCB,0x4
	.DB  0xCB,0x4,0xCB,0x4,0xCB,0x4,0xCB,0x4
	.DB  0xCB,0x4,0xCA,0x4,0xCA,0x4,0xCA,0x4
	.DB  0xCA,0x4,0xCA,0x4,0xCA,0x4,0xCA,0x4
	.DB  0xCA,0x4,0xCA,0x4,0xCA,0x4,0xCA,0x4
	.DB  0xC9,0x4,0xC9,0x4,0xC9,0x4,0xC9,0x4
	.DB  0xC9,0x4,0xC9,0x4,0xC9,0x4,0xC9,0x4
	.DB  0xC9,0x4,0xC9,0x4,0xC9,0x4,0xC8,0x4
	.DB  0xC8,0x4,0xC8,0x4,0xC8,0x4,0xC8,0x4
	.DB  0xC8,0x4,0xC8,0x4,0xC8,0x4,0xC8,0x4
	.DB  0xC8,0x4,0xC8,0x4,0xC7,0x4,0xC7,0x4
	.DB  0xC7,0x4,0xC7,0x4,0xC7,0x4,0xC7,0x4
	.DB  0xC7,0x4,0xC7,0x4,0xC7,0x4,0xC7,0x4
	.DB  0xC7,0x4,0xC6,0x4,0xC6,0x4,0xC6,0x4
	.DB  0xC6,0x4,0xC6,0x4,0xC6,0x4,0xC6,0x4
	.DB  0xC6,0x4,0xC6,0x4,0xC6,0x4,0xC6,0x4
	.DB  0xC6,0x4,0xC5,0x4,0xC5,0x4,0xC5,0x4
	.DB  0xC5,0x4,0xC5,0x4,0xC5,0x4,0xC5,0x4
	.DB  0xC5,0x4,0xC5,0x4,0xC5,0x4,0xC5,0x4
	.DB  0xC4,0x4,0xC4,0x4,0xC4,0x4,0xC4,0x4
	.DB  0xC4,0x4,0xC4,0x4,0xC4,0x4,0xC4,0x4
	.DB  0xC4,0x4,0xC4,0x4,0xC4,0x4,0xC3,0x4
	.DB  0xC3,0x4,0xC3,0x4,0xC3,0x4,0xC3,0x4
	.DB  0xC3,0x4,0xC3,0x4,0xC3,0x4,0xC3,0x4
	.DB  0xC3,0x4,0xC3,0x4,0xC2,0x4,0xC2,0x4
	.DB  0xC2,0x4,0xC2,0x4,0xC2,0x4,0xC2,0x4
	.DB  0xC2,0x4,0xC2,0x4,0xC2,0x4,0xC2,0x4
	.DB  0xC2,0x4,0xC2,0x4,0xC1,0x4,0xC1,0x4
	.DB  0xC1,0x4,0xC1,0x4,0xC1,0x4,0xC1,0x4
	.DB  0xC1,0x4,0xC1,0x4,0xC1,0x4,0xC1,0x4
	.DB  0xC1,0x4,0xC0,0x4,0xC0,0x4,0xC0,0x4
	.DB  0xC0,0x4,0xC0,0x4,0xC0,0x4,0xC0,0x4
	.DB  0xC0,0x4,0xC0,0x4,0xC0,0x4,0xC0,0x4
	.DB  0xBF,0x4,0xBF,0x4,0xBF,0x4,0xBF,0x4
	.DB  0xBF,0x4,0xBF,0x4,0xBF,0x4,0xBF,0x4
	.DB  0xBF,0x4,0xBF,0x4,0xBF,0x4,0xBF,0x4
	.DB  0xBE,0x4,0xBE,0x4,0xBE,0x4,0xBE,0x4
	.DB  0xBE,0x4,0xBE,0x4,0xBE,0x4,0xBE,0x4
	.DB  0xBE,0x4,0xBE,0x4,0xBE,0x4,0xBD,0x4
	.DB  0xBD,0x4,0xBD,0x4,0xBD,0x4,0xBD,0x4
	.DB  0xBD,0x4,0xBD,0x4,0xBD,0x4,0xBD,0x4
	.DB  0xBD,0x4,0xBD,0x4,0xBD,0x4,0xBC,0x4
	.DB  0xBC,0x4,0xBC,0x4,0xBC,0x4,0xBC,0x4
	.DB  0xBC,0x4,0xBC,0x4,0xBC,0x4,0xBC,0x4
	.DB  0xBC,0x4,0xBC,0x4,0xBB,0x4,0xBB,0x4
	.DB  0xBB,0x4,0xBB,0x4,0xBB,0x4,0xBB,0x4
	.DB  0xBB,0x4,0xBB,0x4,0xBB,0x4,0xBB,0x4
	.DB  0xBB,0x4,0xBA,0x4,0xBA,0x4,0xBA,0x4
	.DB  0xBA,0x4,0xBA,0x4,0xBA,0x4,0xBA,0x4
	.DB  0xBA,0x4,0xBA,0x4,0xBA,0x4,0xBA,0x4
	.DB  0xBA,0x4,0xB9,0x4,0xB9,0x4,0xB9,0x4
	.DB  0xB9,0x4,0xB9,0x4,0xB9,0x4,0xB9,0x4
	.DB  0xB9,0x4,0xB9,0x4,0xB9,0x4,0xB9,0x4
	.DB  0xB8,0x4,0xB8,0x4,0xB8,0x4,0xB8,0x4
	.DB  0xB8,0x4,0xB8,0x4,0xB8,0x4,0xB8,0x4
	.DB  0xB8,0x4,0xB8,0x4,0xB8,0x4,0xB8,0x4
	.DB  0xB7,0x4,0xB7,0x4,0xB7,0x4,0xB7,0x4
	.DB  0xB7,0x4,0xB7,0x4,0xB7,0x4,0xB7,0x4
	.DB  0xB7,0x4,0xB7,0x4,0xB7,0x4,0xB7,0x4
	.DB  0xB6,0x4,0xB6,0x4,0xB6,0x4,0xB6,0x4
	.DB  0xB6,0x4,0xB6,0x4,0xB6,0x4,0xB6,0x4
	.DB  0xB6,0x4,0xB6,0x4,0xB6,0x4,0xB5,0x4
	.DB  0xB5,0x4,0xB5,0x4,0xB5,0x4,0xB5,0x4
	.DB  0xB5,0x4,0xB5,0x4,0xB5,0x4,0xB5,0x4
	.DB  0xB5,0x4,0xB5,0x4,0xB5,0x4,0xB4,0x4
	.DB  0xB4,0x4,0xB4,0x4,0xB4,0x4,0xB4,0x4
	.DB  0xB4,0x4,0xB4,0x4,0xB4,0x4,0xB4,0x4
	.DB  0xB4,0x4,0xB4,0x4,0xB3,0x4,0xB3,0x4
	.DB  0xB3,0x4,0xB3,0x4,0xB3,0x4,0xB3,0x4
	.DB  0xB3,0x4,0xB3,0x4,0xB3,0x4,0xB3,0x4
	.DB  0xB3,0x4,0xB3,0x4,0xB2,0x4,0xB2,0x4
	.DB  0xB2,0x4,0xB2,0x4,0xB2,0x4,0xB2,0x4
	.DB  0xB2,0x4,0xB2,0x4,0xB2,0x4,0xB2,0x4
	.DB  0xB2,0x4,0xB2,0x4,0xB1,0x4,0xB1,0x4
	.DB  0xB1,0x4,0xB1,0x4,0xB1,0x4,0xB1,0x4
	.DB  0xB1,0x4,0xB1,0x4,0xB1,0x4,0xB1,0x4
	.DB  0xB1,0x4,0xB0,0x4,0xB0,0x4,0xB0,0x4
	.DB  0xB0,0x4,0xB0,0x4,0xB0,0x4,0xB0,0x4
	.DB  0xB0,0x4,0xB0,0x4,0xB0,0x4,0xB0,0x4
	.DB  0xB0,0x4,0xAF,0x4,0xAF,0x4,0xAF,0x4
	.DB  0xAF,0x4,0xAF,0x4,0xAF,0x4,0xAF,0x4
	.DB  0xAF,0x4,0xAF,0x4,0xAF,0x4,0xAF,0x4
	.DB  0xAF,0x4,0xAE,0x4,0xAE,0x4,0xAE,0x4
	.DB  0xAE,0x4,0xAE,0x4,0xAE,0x4,0xAE,0x4
	.DB  0xAE,0x4,0xAE,0x4,0xAE,0x4,0xAE,0x4
	.DB  0xAE,0x4,0xAD,0x4,0xAD,0x4,0xAD,0x4
	.DB  0xAD,0x4,0xAD,0x4,0xAD,0x4,0xAD,0x4
	.DB  0xAD,0x4,0xAD,0x4,0xAD,0x4,0xAD,0x4
	.DB  0xAC,0x4,0xAC,0x4,0xAC,0x4,0xAC,0x4
	.DB  0xAC,0x4,0xAC,0x4,0xAC,0x4,0xAC,0x4
	.DB  0xAC,0x4,0xAC,0x4,0xAC,0x4,0xAC,0x4
	.DB  0xAB,0x4,0xAB,0x4,0xAB,0x4,0xAB,0x4
	.DB  0xAB,0x4,0xAB,0x4,0xAB,0x4,0xAB,0x4
	.DB  0xAB,0x4,0xAB,0x4,0xAB,0x4,0xAB,0x4
	.DB  0xAA,0x4,0xAA,0x4,0xAA,0x4,0xAA,0x4
	.DB  0xAA,0x4,0xAA,0x4,0xAA,0x4,0xAA,0x4
	.DB  0xAA,0x4,0xAA,0x4,0xAA,0x4,0xAA,0x4
	.DB  0xA9,0x4,0xA9,0x4,0xA9,0x4,0xA9,0x4
	.DB  0xA9,0x4,0xA9,0x4,0xA9,0x4,0xA9,0x4
	.DB  0xA9,0x4,0xA9,0x4,0xA9,0x4,0xA9,0x4
	.DB  0xA8,0x4,0xA8,0x4,0xA8,0x4,0xA8,0x4
	.DB  0xA8,0x4,0xA8,0x4,0xA8,0x4,0xA8,0x4
	.DB  0xA8,0x4,0xA8,0x4,0xA8,0x4,0xA8,0x4
	.DB  0xA7,0x4,0xA7,0x4,0xA7,0x4,0xA7,0x4
	.DB  0xA7,0x4,0xA7,0x4,0xA7,0x4,0xA7,0x4
	.DB  0xA7,0x4,0xA7,0x4,0xA7,0x4,0xA7,0x4
	.DB  0xA6,0x4,0xA6,0x4,0xA6,0x4,0xA6,0x4
	.DB  0xA6,0x4,0xA6,0x4,0xA6,0x4,0xA6,0x4
	.DB  0xA6,0x4,0xA6,0x4,0xA6,0x4,0xA5,0x4
	.DB  0xA5,0x4,0xA5,0x4,0xA5,0x4,0xA5,0x4
	.DB  0xA5,0x4,0xA5,0x4,0xA5,0x4,0xA5,0x4
	.DB  0xA5,0x4,0xA5,0x4,0xA5,0x4,0xA4,0x4
	.DB  0xA4,0x4,0xA4,0x4,0xA4,0x4,0xA4,0x4
	.DB  0xA4,0x4,0xA4,0x4,0xA4,0x4,0xA4,0x4
	.DB  0xA4,0x4,0xA4,0x4,0xA4,0x4,0xA3,0x4
	.DB  0xA3,0x4,0xA3,0x4,0xA3,0x4,0xA3,0x4
	.DB  0xA3,0x4,0xA3,0x4,0xA3,0x4,0xA3,0x4
	.DB  0xA3,0x4,0xA3,0x4,0xA3,0x4,0xA2,0x4
	.DB  0xA2,0x4,0xA2,0x4,0xA2,0x4,0xA2,0x4
	.DB  0xA2,0x4,0xA2,0x4,0xA2,0x4,0xA2,0x4
	.DB  0xA2,0x4,0xA2,0x4,0xA2,0x4,0xA1,0x4
	.DB  0xA1,0x4,0xA1,0x4,0xA1,0x4,0xA1,0x4
	.DB  0xA1,0x4,0xA1,0x4,0xA1,0x4,0xA1,0x4
	.DB  0xA1,0x4,0xA1,0x4,0xA1,0x4,0xA0,0x4
	.DB  0xA0,0x4,0xA0,0x4,0xA0,0x4,0xA0,0x4
	.DB  0xA0,0x4,0xA0,0x4,0xA0,0x4,0xA0,0x4
	.DB  0xA0,0x4,0xA0,0x4,0xA0,0x4,0x9F,0x4
	.DB  0x9F,0x4,0x9F,0x4,0x9F,0x4,0x9F,0x4
	.DB  0x9F,0x4,0x9F,0x4,0x9F,0x4,0x9F,0x4
	.DB  0x9F,0x4,0x9F,0x4,0x9F,0x4,0x9F,0x4
	.DB  0x9E,0x4,0x9E,0x4,0x9E,0x4,0x9E,0x4
	.DB  0x9E,0x4,0x9E,0x4,0x9E,0x4,0x9E,0x4
	.DB  0x9E,0x4,0x9E,0x4,0x9E,0x4,0x9E,0x4
	.DB  0x9D,0x4,0x9D,0x4,0x9D,0x4,0x9D,0x4
	.DB  0x9D,0x4,0x9D,0x4,0x9D,0x4,0x9D,0x4
	.DB  0x9D,0x4,0x9D,0x4,0x9D,0x4,0x9D,0x4
	.DB  0x9C,0x4,0x9C,0x4,0x9C,0x4,0x9C,0x4
	.DB  0x9C,0x4,0x9C,0x4,0x9C,0x4,0x9C,0x4
	.DB  0x9C,0x4,0x9C,0x4,0x9C,0x4,0x9C,0x4
	.DB  0x9B,0x4,0x9B,0x4,0x9B,0x4,0x9B,0x4
	.DB  0x9B,0x4,0x9B,0x4,0x9B,0x4,0x9B,0x4
	.DB  0x9B,0x4,0x9B,0x4,0x9B,0x4,0x9B,0x4
	.DB  0x9A,0x4,0x9A,0x4,0x9A,0x4,0x9A,0x4
	.DB  0x9A,0x4,0x9A,0x4,0x9A,0x4,0x9A,0x4
	.DB  0x9A,0x4,0x9A,0x4,0x9A,0x4,0x9A,0x4
	.DB  0x99,0x4,0x99,0x4,0x99,0x4,0x99,0x4
	.DB  0x99,0x4,0x99,0x4,0x99,0x4,0x99,0x4
	.DB  0x99,0x4,0x99,0x4,0x99,0x4,0x99,0x4
	.DB  0x98,0x4,0x98,0x4,0x98,0x4,0x98,0x4
	.DB  0x98,0x4,0x98,0x4,0x98,0x4,0x98,0x4
	.DB  0x98,0x4,0x98,0x4,0x98,0x4,0x98,0x4
	.DB  0x97,0x4,0x97,0x4,0x97,0x4,0x97,0x4
	.DB  0x97,0x4,0x97,0x4,0x97,0x4,0x97,0x4
	.DB  0x97,0x4,0x97,0x4,0x97,0x4,0x97,0x4
	.DB  0x97,0x4,0x96,0x4,0x96,0x4,0x96,0x4
	.DB  0x96,0x4,0x96,0x4,0x96,0x4,0x96,0x4
	.DB  0x96,0x4,0x96,0x4,0x96,0x4,0x96,0x4
	.DB  0x96,0x4,0x95,0x4,0x95,0x4,0x95,0x4
	.DB  0x95,0x4,0x95,0x4,0x95,0x4,0x95,0x4
	.DB  0x95,0x4,0x95,0x4,0x95,0x4,0x95,0x4
	.DB  0x95,0x4,0x94,0x4,0x94,0x4,0x94,0x4
	.DB  0x94,0x4,0x94,0x4,0x94,0x4,0x94,0x4
	.DB  0x94,0x4,0x94,0x4,0x94,0x4,0x94,0x4
	.DB  0x94,0x4,0x93,0x4,0x93,0x4,0x93,0x4
	.DB  0x93,0x4,0x93,0x4,0x93,0x4,0x93,0x4
	.DB  0x93,0x4,0x93,0x4,0x93,0x4,0x93,0x4
	.DB  0x93,0x4,0x93,0x4,0x92,0x4,0x92,0x4
	.DB  0x92,0x4,0x92,0x4,0x92,0x4,0x92,0x4
	.DB  0x92,0x4,0x92,0x4,0x92,0x4,0x92,0x4
	.DB  0x92,0x4,0x92,0x4,0x91,0x4,0x91,0x4
	.DB  0x91,0x4,0x91,0x4,0x91,0x4,0x91,0x4
	.DB  0x91,0x4,0x91,0x4,0x91,0x4,0x91,0x4
	.DB  0x91,0x4,0x91,0x4,0x90,0x4,0x90,0x4
	.DB  0x90,0x4,0x90,0x4,0x90,0x4,0x90,0x4
	.DB  0x90,0x4,0x90,0x4,0x90,0x4,0x90,0x4
	.DB  0x90,0x4,0x90,0x4,0x90,0x4,0x8F,0x4
	.DB  0x8F,0x4,0x8F,0x4,0x8F,0x4,0x8F,0x4
	.DB  0x8F,0x4,0x8F,0x4,0x8F,0x4,0x8F,0x4
	.DB  0x8F,0x4,0x8F,0x4,0x8F,0x4,0x8E,0x4
	.DB  0x8E,0x4,0x8E,0x4,0x8E,0x4,0x8E,0x4
	.DB  0x8E,0x4,0x8E,0x4,0x8E,0x4,0x8E,0x4
	.DB  0x8E,0x4,0x8E,0x4,0x8E,0x4,0x8D,0x4
	.DB  0x8D,0x4,0x8D,0x4,0x8D,0x4,0x8D,0x4
	.DB  0x8D,0x4,0x8D,0x4,0x8D,0x4,0x8D,0x4
	.DB  0x8D,0x4,0x8D,0x4,0x8D,0x4,0x8D,0x4
	.DB  0x8C,0x4,0x8C,0x4,0x8C,0x4,0x8C,0x4
	.DB  0x8C,0x4,0x8C,0x4,0x8C,0x4,0x8C,0x4
	.DB  0x8C,0x4,0x8C,0x4,0x8C,0x4,0x8C,0x4
	.DB  0x8B,0x4,0x8B,0x4,0x8B,0x4,0x8B,0x4
	.DB  0x8B,0x4,0x8B,0x4,0x8B,0x4,0x8B,0x4
	.DB  0x8B,0x4,0x8B,0x4,0x8B,0x4,0x8B,0x4
	.DB  0x8A,0x4,0x8A,0x4,0x8A,0x4,0x8A,0x4
	.DB  0x8A,0x4,0x8A,0x4,0x8A,0x4,0x8A,0x4
	.DB  0x8A,0x4,0x8A,0x4,0x8A,0x4,0x8A,0x4
	.DB  0x8A,0x4,0x89,0x4,0x89,0x4,0x89,0x4
	.DB  0x89,0x4,0x89,0x4,0x89,0x4,0x89,0x4
	.DB  0x89,0x4,0x89,0x4,0x89,0x4,0x89,0x4
	.DB  0x89,0x4,0x88,0x4,0x88,0x4,0x88,0x4
	.DB  0x88,0x4,0x88,0x4,0x88,0x4,0x88,0x4
	.DB  0x88,0x4,0x88,0x4,0x88,0x4,0x88,0x4
	.DB  0x88,0x4,0x88,0x4,0x87,0x4,0x87,0x4
	.DB  0x87,0x4,0x87,0x4,0x87,0x4,0x87,0x4
	.DB  0x87,0x4,0x87,0x4,0x87,0x4,0x87,0x4
	.DB  0x87,0x4,0x87,0x4,0x86,0x4,0x86,0x4
	.DB  0x86,0x4,0x86,0x4,0x86,0x4,0x86,0x4
	.DB  0x86,0x4,0x86,0x4,0x86,0x4,0x86,0x4
	.DB  0x86,0x4,0x86,0x4,0x85,0x4,0x85,0x4
	.DB  0x85,0x4,0x85,0x4,0x85,0x4,0x85,0x4
	.DB  0x85,0x4,0x85,0x4,0x85,0x4,0x85,0x4
	.DB  0x85,0x4,0x85,0x4,0x85,0x4,0x84,0x4
	.DB  0x84,0x4,0x84,0x4,0x84,0x4,0x84,0x4
	.DB  0x84,0x4,0x84,0x4,0x84,0x4,0x84,0x4
	.DB  0x84,0x4,0x84,0x4,0x84,0x4,0x83,0x4
	.DB  0x83,0x4,0x83,0x4,0x83,0x4,0x83,0x4
	.DB  0x83,0x4,0x83,0x4,0x83,0x4,0x83,0x4
	.DB  0x83,0x4,0x83,0x4,0x83,0x4,0x83,0x4
	.DB  0x82,0x4,0x82,0x4,0x82,0x4,0x82,0x4
	.DB  0x82,0x4,0x82,0x4,0x82,0x4,0x82,0x4
	.DB  0x82,0x4,0x82,0x4,0x82,0x4,0x82,0x4
	.DB  0x81,0x4,0x81,0x4,0x81,0x4,0x81,0x4
	.DB  0x81,0x4,0x81,0x4,0x81,0x4,0x81,0x4
	.DB  0x81,0x4,0x81,0x4,0x81,0x4,0x81,0x4
	.DB  0x81,0x4,0x80,0x4,0x80,0x4,0x80,0x4
	.DB  0x80,0x4,0x80,0x4,0x80,0x4,0x80,0x4
	.DB  0x80,0x4,0x80,0x4,0x80,0x4,0x80,0x4
	.DB  0x80,0x4,0x7F,0x4,0x7F,0x4,0x7F,0x4
	.DB  0x7F,0x4,0x7F,0x4,0x7F,0x4,0x7F,0x4
	.DB  0x7F,0x4,0x7F,0x4,0x7F,0x4,0x7F,0x4
	.DB  0x7F,0x4,0x7F,0x4,0x7E,0x4,0x7E,0x4
	.DB  0x7E,0x4,0x7E,0x4,0x7E,0x4,0x7E,0x4
	.DB  0x7E,0x4,0x7E,0x4,0x7E,0x4,0x7E,0x4
	.DB  0x7E,0x4,0x7E,0x4,0x7D,0x4,0x7D,0x4
	.DB  0x7D,0x4,0x7D,0x4,0x7D,0x4,0x7D,0x4
	.DB  0x7D,0x4,0x7D,0x4,0x7D,0x4,0x7D,0x4
	.DB  0x7D,0x4,0x7D,0x4,0x7D,0x4,0x7C,0x4
	.DB  0x7C,0x4,0x7C,0x4,0x7C,0x4,0x7C,0x4
	.DB  0x7C,0x4,0x7C,0x4,0x7C,0x4,0x7C,0x4
	.DB  0x7C,0x4,0x7C,0x4,0x7C,0x4,0x7C,0x4
	.DB  0x7B,0x4,0x7B,0x4,0x7B,0x4,0x7B,0x4
	.DB  0x7B,0x4,0x7B,0x4,0x7B,0x4,0x7B,0x4
	.DB  0x7B,0x4,0x7B,0x4,0x7B,0x4,0x7B,0x4
	.DB  0x7A,0x4,0x7A,0x4,0x7A,0x4,0x7A,0x4
	.DB  0x7A,0x4,0x7A,0x4,0x7A,0x4,0x7A,0x4
	.DB  0x7A,0x4,0x7A,0x4,0x7A,0x4,0x7A,0x4
	.DB  0x7A,0x4,0x79,0x4,0x79,0x4,0x79,0x4
	.DB  0x79,0x4,0x79,0x4,0x79,0x4,0x79,0x4
	.DB  0x79,0x4,0x79,0x4,0x79,0x4,0x79,0x4
	.DB  0x79,0x4,0x78,0x4,0x78,0x4,0x78,0x4
	.DB  0x78,0x4,0x78,0x4,0x78,0x4,0x78,0x4
	.DB  0x78,0x4,0x78,0x4,0x78,0x4,0x78,0x4
	.DB  0x78,0x4,0x78,0x4,0x77,0x4,0x77,0x4
	.DB  0x77,0x4,0x77,0x4,0x77,0x4,0x77,0x4
	.DB  0x77,0x4,0x77,0x4,0x77,0x4,0x77,0x4
	.DB  0x77,0x4,0x77,0x4,0x77,0x4,0x76,0x4
	.DB  0x76,0x4,0x76,0x4,0x76,0x4,0x76,0x4
	.DB  0x76,0x4,0x76,0x4,0x76,0x4,0x76,0x4
	.DB  0x76,0x4,0x76,0x4,0x76,0x4,0x75,0x4
	.DB  0x75,0x4,0x75,0x4,0x75,0x4,0x75,0x4
	.DB  0x75,0x4,0x75,0x4,0x75,0x4,0x75,0x4
	.DB  0x75,0x4,0x75,0x4,0x75,0x4,0x75,0x4
	.DB  0x74,0x4,0x74,0x4,0x74,0x4,0x74,0x4
	.DB  0x74,0x4,0x74,0x4,0x74,0x4,0x74,0x4
	.DB  0x74,0x4,0x74,0x4,0x74,0x4,0x74,0x4
	.DB  0x73,0x4,0x73,0x4,0x73,0x4,0x73,0x4
	.DB  0x73,0x4,0x73,0x4,0x73,0x4,0x73,0x4
	.DB  0x73,0x4,0x73,0x4,0x73,0x4,0x73,0x4
	.DB  0x73,0x4,0x72,0x4,0x72,0x4,0x72,0x4
	.DB  0x72,0x4,0x72,0x4,0x72,0x4,0x72,0x4
	.DB  0x72,0x4,0x72,0x4,0x72,0x4,0x72,0x4
	.DB  0x72,0x4,0x72,0x4,0x71,0x4,0x71,0x4
	.DB  0x71,0x4,0x71,0x4,0x71,0x4,0x71,0x4
	.DB  0x71,0x4,0x71,0x4,0x71,0x4,0x71,0x4
	.DB  0x71,0x4,0x71,0x4,0x70,0x4,0x70,0x4
	.DB  0x70,0x4,0x70,0x4,0x70,0x4,0x70,0x4
	.DB  0x70,0x4,0x70,0x4,0x70,0x4,0x70,0x4
	.DB  0x70,0x4,0x70,0x4,0x70,0x4,0x6F,0x4
	.DB  0x6F,0x4,0x6F,0x4,0x6F,0x4,0x6F,0x4
	.DB  0x6F,0x4,0x6F,0x4,0x6F,0x4,0x6F,0x4
	.DB  0x6F,0x4,0x6F,0x4,0x6F,0x4,0x6F,0x4
	.DB  0x6E,0x4,0x6E,0x4,0x6E,0x4,0x6E,0x4
	.DB  0x6E,0x4,0x6E,0x4,0x6E,0x4,0x6E,0x4
	.DB  0x6E,0x4,0x6E,0x4,0x6E,0x4,0x6E,0x4
	.DB  0x6D,0x4,0x6D,0x4,0x6D,0x4,0x6D,0x4
	.DB  0x6D,0x4,0x6D,0x4,0x6D,0x4,0x6D,0x4
	.DB  0x6D,0x4,0x6D,0x4,0x6D,0x4,0x6D,0x4
	.DB  0x6D,0x4,0x6C,0x4,0x6C,0x4,0x6C,0x4
	.DB  0x6C,0x4,0x6C,0x4,0x6C,0x4,0x6C,0x4
	.DB  0x6C,0x4,0x6C,0x4,0x6C,0x4,0x6C,0x4
	.DB  0x6C,0x4,0x6C,0x4,0x6B,0x4,0x6B,0x4
	.DB  0x6B,0x4,0x6B,0x4,0x6B,0x4,0x6B,0x4
	.DB  0x6B,0x4,0x6B,0x4,0x6B,0x4,0x6B,0x4
	.DB  0x6B,0x4,0x6B,0x4,0x6A,0x4,0x6A,0x4
	.DB  0x6A,0x4,0x6A,0x4,0x6A,0x4,0x6A,0x4
	.DB  0x6A,0x4,0x6A,0x4,0x6A,0x4,0x6A,0x4
	.DB  0x6A,0x4,0x6A,0x4,0x6A,0x4,0x69,0x4
	.DB  0x69,0x4,0x69,0x4,0x69,0x4,0x69,0x4
	.DB  0x69,0x4,0x69,0x4,0x69,0x4,0x69,0x4
	.DB  0x69,0x4,0x69,0x4,0x69,0x4,0x69,0x4
	.DB  0x68,0x4,0x68,0x4,0x68,0x4,0x68,0x4
	.DB  0x68,0x4,0x68,0x4,0x68,0x4,0x68,0x4
	.DB  0x68,0x4,0x68,0x4,0x68,0x4,0x68,0x4
	.DB  0x68,0x4,0x67,0x4,0x67,0x4,0x67,0x4
	.DB  0x67,0x4,0x67,0x4,0x67,0x4,0x67,0x4
	.DB  0x67,0x4,0x67,0x4,0x67,0x4,0x67,0x4
	.DB  0x67,0x4,0x66,0x4,0x66,0x4,0x66,0x4
	.DB  0x66,0x4,0x66,0x4,0x66,0x4,0x66,0x4
	.DB  0x66,0x4,0x66,0x4,0x66,0x4,0x66,0x4
	.DB  0x66,0x4,0x66,0x4,0x65,0x4,0x65,0x4
	.DB  0x65,0x4,0x65,0x4,0x65,0x4,0x65,0x4
	.DB  0x65,0x4,0x65,0x4,0x65,0x4,0x65,0x4
	.DB  0x65,0x4,0x65,0x4,0x65,0x4,0x64,0x4
	.DB  0x64,0x4,0x64,0x4,0x64,0x4,0x64,0x4
	.DB  0x64,0x4,0x64,0x4,0x64,0x4,0x64,0x4
	.DB  0x64,0x4,0x64,0x4,0x64,0x4,0x64,0x4
	.DB  0x63,0x4,0x63,0x4,0x63,0x4,0x63,0x4
	.DB  0x63,0x4,0x63,0x4,0x63,0x4,0x63,0x4
	.DB  0x63,0x4,0x63,0x4,0x63,0x4,0x63,0x4
	.DB  0x62,0x4,0x62,0x4,0x62,0x4,0x62,0x4
	.DB  0x62,0x4,0x62,0x4,0x62,0x4,0x62,0x4
	.DB  0x62,0x4,0x62,0x4,0x62,0x4,0x62,0x4
	.DB  0x62,0x4,0x61,0x4,0x61,0x4,0x61,0x4
	.DB  0x61,0x4,0x61,0x4,0x61,0x4,0x61,0x4
	.DB  0x61,0x4,0x61,0x4,0x61,0x4,0x61,0x4
	.DB  0x61,0x4,0x61,0x4,0x60,0x4,0x60,0x4
	.DB  0x60,0x4,0x60,0x4,0x60,0x4,0x60,0x4
	.DB  0x60,0x4,0x60,0x4,0x60,0x4,0x60,0x4
	.DB  0x60,0x4,0x60,0x4,0x5F,0x4,0x5F,0x4
	.DB  0x5F,0x4,0x5F,0x4,0x5F,0x4,0x5F,0x4
	.DB  0x5F,0x4,0x5F,0x4,0x5F,0x4,0x5F,0x4
	.DB  0x5F,0x4,0x5F,0x4,0x5F,0x4,0x5E,0x4
	.DB  0x5E,0x4,0x5E,0x4,0x5E,0x4,0x5E,0x4
	.DB  0x5E,0x4,0x5E,0x4,0x5E,0x4,0x5E,0x4
	.DB  0x5E,0x4,0x5E,0x4,0x5E,0x4,0x5E,0x4
	.DB  0x5D,0x4,0x5D,0x4,0x5D,0x4,0x5D,0x4
	.DB  0x5D,0x4,0x5D,0x4,0x5D,0x4,0x5D,0x4
	.DB  0x5D,0x4,0x5D,0x4,0x5D,0x4,0x5D,0x4
	.DB  0x5D,0x4,0x5C,0x4,0x5C,0x4,0x5C,0x4
	.DB  0x5C,0x4,0x5C,0x4,0x5C,0x4,0x5C,0x4
	.DB  0x5C,0x4,0x5C,0x4,0x5C,0x4,0x5C,0x4
	.DB  0x5C,0x4,0x5B,0x4,0x5B,0x4,0x5B,0x4
	.DB  0x5B,0x4,0x5B,0x4,0x5B,0x4,0x5B,0x4
	.DB  0x5B,0x4,0x5B,0x4,0x5B,0x4,0x5B,0x4
	.DB  0x5B,0x4,0x5B,0x4,0x5A,0x4,0x5A,0x4
	.DB  0x5A,0x4,0x5A,0x4,0x5A,0x4,0x5A,0x4
	.DB  0x5A,0x4,0x5A,0x4,0x5A,0x4,0x5A,0x4
	.DB  0x5A,0x4,0x5A,0x4,0x5A,0x4,0x59,0x4
	.DB  0x59,0x4,0x59,0x4,0x59,0x4,0x59,0x4
	.DB  0x59,0x4,0x59,0x4,0x59,0x4,0x59,0x4
	.DB  0x59,0x4,0x59,0x4,0x59,0x4,0x59,0x4
	.DB  0x58,0x4,0x58,0x4,0x58,0x4,0x58,0x4
	.DB  0x58,0x4,0x58,0x4,0x58,0x4,0x58,0x4
	.DB  0x58,0x4,0x58,0x4,0x58,0x4,0x58,0x4
	.DB  0x58,0x4,0x57,0x4,0x57,0x4,0x57,0x4
	.DB  0x57,0x4,0x57,0x4,0x57,0x4,0x57,0x4
	.DB  0x57,0x4,0x57,0x4,0x57,0x4,0x57,0x4
	.DB  0x57,0x4,0x56,0x4,0x56,0x4,0x56,0x4
	.DB  0x56,0x4,0x56,0x4,0x56,0x4,0x56,0x4
	.DB  0x56,0x4,0x56,0x4,0x56,0x4,0x56,0x4
	.DB  0x56,0x4,0x56,0x4,0x55,0x4,0x55,0x4
	.DB  0x55,0x4,0x55,0x4,0x55,0x4,0x55,0x4
	.DB  0x55,0x4,0x55,0x4,0x55,0x4,0x55,0x4
	.DB  0x55,0x4,0x55,0x4,0x55,0x4,0x54,0x4
	.DB  0x54,0x4,0x54,0x4,0x54,0x4,0x54,0x4
	.DB  0x54,0x4,0x54,0x4,0x54,0x4,0x54,0x4
	.DB  0x54,0x4,0x54,0x4,0x54,0x4,0x54,0x4
	.DB  0x53,0x4,0x53,0x4,0x53,0x4,0x53,0x4
	.DB  0x53,0x4,0x53,0x4,0x53,0x4,0x53,0x4
	.DB  0x53,0x4,0x53,0x4,0x53,0x4,0x53,0x4
	.DB  0x52,0x4,0x52,0x4,0x52,0x4,0x52,0x4
	.DB  0x52,0x4,0x52,0x4,0x52,0x4,0x52,0x4
	.DB  0x52,0x4,0x52,0x4,0x52,0x4,0x52,0x4
	.DB  0x52,0x4,0x51,0x4,0x51,0x4,0x51,0x4
	.DB  0x51,0x4,0x51,0x4,0x51,0x4,0x51,0x4
	.DB  0x51,0x4,0x51,0x4,0x51,0x4,0x51,0x4
	.DB  0x51,0x4,0x51,0x4,0x50,0x4,0x50,0x4
	.DB  0x50,0x4,0x50,0x4,0x50,0x4,0x50,0x4
	.DB  0x50,0x4,0x50,0x4,0x50,0x4,0x50,0x4
	.DB  0x50,0x4,0x50,0x4,0x50,0x4,0x4F,0x4
	.DB  0x4F,0x4,0x4F,0x4,0x4F,0x4,0x4F,0x4
	.DB  0x4F,0x4,0x4F,0x4,0x4F,0x4,0x4F,0x4
	.DB  0x4F,0x4,0x4F,0x4,0x4F,0x4,0x4E,0x4
	.DB  0x4E,0x4,0x4E,0x4,0x4E,0x4,0x4E,0x4
	.DB  0x4E,0x4,0x4E,0x4,0x4E,0x4,0x4E,0x4
	.DB  0x4E,0x4,0x4E,0x4,0x4E,0x4,0x4E,0x4
	.DB  0x4D,0x4,0x4D,0x4,0x4D,0x4,0x4D,0x4
	.DB  0x4D,0x4,0x4D,0x4,0x4D,0x4,0x4D,0x4
	.DB  0x4D,0x4,0x4D,0x4,0x4D,0x4,0x4D,0x4
	.DB  0x4D,0x4,0x4C,0x4,0x4C,0x4,0x4C,0x4
	.DB  0x4C,0x4,0x4C,0x4,0x4C,0x4,0x4C,0x4
	.DB  0x4C,0x4,0x4C,0x4,0x4C,0x4,0x4C,0x4
	.DB  0x4C,0x4,0x4C,0x4,0x4B,0x4,0x4B,0x4
	.DB  0x4B,0x4,0x4B,0x4,0x4B,0x4,0x4B,0x4
	.DB  0x4B,0x4,0x4B,0x4,0x4B,0x4,0x4B,0x4
	.DB  0x4B,0x4,0x4B,0x4,0x4A,0x4,0x4A,0x4
	.DB  0x4A,0x4,0x4A,0x4,0x4A,0x4,0x4A,0x4
	.DB  0x4A,0x4,0x4A,0x4,0x4A,0x4,0x4A,0x4
	.DB  0x4A,0x4,0x4A,0x4,0x4A,0x4,0x49,0x4
	.DB  0x49,0x4,0x49,0x4,0x49,0x4,0x49,0x4
	.DB  0x49,0x4,0x49,0x4,0x49,0x4,0x49,0x4
	.DB  0x49,0x4,0x49,0x4,0x49,0x4,0x49,0x4
	.DB  0x48,0x4,0x48,0x4,0x48,0x4,0x48,0x4
	.DB  0x48,0x4,0x48,0x4,0x48,0x4,0x48,0x4
	.DB  0x48,0x4,0x48,0x4,0x48,0x4,0x48,0x4
	.DB  0x48,0x4,0x47,0x4,0x47,0x4,0x47,0x4
	.DB  0x47,0x4,0x47,0x4,0x47,0x4,0x47,0x4
	.DB  0x47,0x4,0x47,0x4,0x47,0x4,0x47,0x4
	.DB  0x47,0x4,0x47,0x4,0x46,0x4,0x46,0x4
	.DB  0x46,0x4,0x46,0x4,0x46,0x4,0x46,0x4
	.DB  0x46,0x4,0x46,0x4,0x46,0x4,0x46,0x4
	.DB  0x46,0x4,0x46,0x4,0x45,0x4,0x45,0x4
	.DB  0x45,0x4,0x45,0x4,0x45,0x4,0x45,0x4
	.DB  0x45,0x4,0x45,0x4,0x45,0x4,0x45,0x4
	.DB  0x45,0x4,0x45,0x4,0x45,0x4,0x44,0x4
	.DB  0x44,0x4,0x44,0x4,0x44,0x4,0x44,0x4
	.DB  0x44,0x4,0x44,0x4,0x44,0x4,0x44,0x4
	.DB  0x44,0x4,0x44,0x4,0x44,0x4,0x44,0x4
	.DB  0x43,0x4,0x43,0x4,0x43,0x4,0x43,0x4
	.DB  0x43,0x4,0x43,0x4,0x43,0x4,0x43,0x4
	.DB  0x43,0x4,0x43,0x4,0x43,0x4,0x43,0x4
	.DB  0x43,0x4,0x42,0x4,0x42,0x4,0x42,0x4
	.DB  0x42,0x4,0x42,0x4,0x42,0x4,0x42,0x4
	.DB  0x42,0x4,0x42,0x4,0x42,0x4,0x42,0x4
	.DB  0x42,0x4,0x41,0x4,0x41,0x4,0x41,0x4
	.DB  0x41,0x4,0x41,0x4,0x41,0x4,0x41,0x4
	.DB  0x41,0x4,0x41,0x4,0x41,0x4,0x41,0x4
	.DB  0x41,0x4,0x41,0x4,0x40,0x4,0x40,0x4
	.DB  0x40,0x4,0x40,0x4,0x40,0x4,0x40,0x4
	.DB  0x40,0x4,0x40,0x4,0x40,0x4,0x40,0x4
	.DB  0x40,0x4,0x40,0x4,0x40,0x4,0x3F,0x4
	.DB  0x3F,0x4,0x3F,0x4,0x3F,0x4,0x3F,0x4
	.DB  0x3F,0x4,0x3F,0x4,0x3F,0x4,0x3F,0x4
	.DB  0x3F,0x4,0x3F,0x4,0x3F,0x4,0x3E,0x4
	.DB  0x3E,0x4,0x3E,0x4,0x3E,0x4,0x3E,0x4
	.DB  0x3E,0x4,0x3E,0x4,0x3E,0x4,0x3E,0x4
	.DB  0x3E,0x4,0x3E,0x4,0x3E,0x4,0x3E,0x4
	.DB  0x3D,0x4,0x3D,0x4,0x3D,0x4,0x3D,0x4
	.DB  0x3D,0x4,0x3D,0x4,0x3D,0x4,0x3D,0x4
	.DB  0x3D,0x4,0x3D,0x4,0x3D,0x4,0x3D,0x4
	.DB  0x3D,0x4,0x3C,0x4,0x3C,0x4,0x3C,0x4
	.DB  0x3C,0x4,0x3C,0x4,0x3C,0x4,0x3C,0x4
	.DB  0x3C,0x4,0x3C,0x4,0x3C,0x4,0x3C,0x4
	.DB  0x3C,0x4,0x3C,0x4,0x3B,0x4,0x3B,0x4
	.DB  0x3B,0x4,0x3B,0x4,0x3B,0x4,0x3B,0x4
	.DB  0x3B,0x4,0x3B,0x4,0x3B,0x4,0x3B,0x4
	.DB  0x3B,0x4,0x3B,0x4,0x3A,0x4,0x3A,0x4
	.DB  0x3A,0x4,0x3A,0x4,0x3A,0x4,0x3A,0x4
	.DB  0x3A,0x4,0x3A,0x4,0x3A,0x4,0x3A,0x4
	.DB  0x3A,0x4,0x3A,0x4,0x3A,0x4,0x39,0x4
	.DB  0x39,0x4,0x39,0x4,0x39,0x4,0x39,0x4
	.DB  0x39,0x4,0x39,0x4,0x39,0x4,0x39,0x4
	.DB  0x39,0x4,0x39,0x4,0x39,0x4,0x39,0x4
	.DB  0x38,0x4,0x38,0x4,0x38,0x4,0x38,0x4
	.DB  0x38,0x4,0x38,0x4,0x38,0x4,0x38,0x4
	.DB  0x38,0x4,0x38,0x4,0x38,0x4,0x38,0x4
	.DB  0x37,0x4,0x37,0x4,0x37,0x4,0x37,0x4
	.DB  0x37,0x4,0x37,0x4,0x37,0x4,0x37,0x4
	.DB  0x37,0x4,0x37,0x4,0x37,0x4,0x37,0x4
	.DB  0x37,0x4,0x36,0x4,0x36,0x4,0x36,0x4
	.DB  0x36,0x4,0x36,0x4,0x36,0x4,0x36,0x4
	.DB  0x36,0x4,0x36,0x4,0x36,0x4,0x36,0x4
	.DB  0x36,0x4,0x36,0x4,0x35,0x4,0x35,0x4
	.DB  0x35,0x4,0x35,0x4,0x35,0x4,0x35,0x4
	.DB  0x35,0x4,0x35,0x4,0x35,0x4,0x35,0x4
	.DB  0x35,0x4,0x35,0x4,0x34,0x4,0x34,0x4
	.DB  0x34,0x4,0x34,0x4,0x34,0x4,0x34,0x4
	.DB  0x34,0x4,0x34,0x4,0x34,0x4,0x34,0x4
	.DB  0x34,0x4,0x34,0x4,0x34,0x4,0x33,0x4
	.DB  0x33,0x4,0x33,0x4,0x33,0x4,0x33,0x4
	.DB  0x33,0x4,0x33,0x4,0x33,0x4,0x33,0x4
	.DB  0x33,0x4,0x33,0x4,0x33,0x4,0x33,0x4
	.DB  0x32,0x4,0x32,0x4,0x32,0x4,0x32,0x4
	.DB  0x32,0x4,0x32,0x4,0x32,0x4,0x32,0x4
	.DB  0x32,0x4,0x32,0x4,0x32,0x4,0x32,0x4
	.DB  0x31,0x4,0x31,0x4,0x31,0x4,0x31,0x4
	.DB  0x31,0x4,0x31,0x4,0x31,0x4,0x31,0x4
	.DB  0x31,0x4,0x31,0x4,0x31,0x4,0x31,0x4
	.DB  0x31,0x4,0x30,0x4,0x30,0x4,0x30,0x4
	.DB  0x30,0x4,0x30,0x4,0x30,0x4,0x30,0x4
	.DB  0x30,0x4,0x30,0x4,0x30,0x4,0x30,0x4
	.DB  0x30,0x4,0x30,0x4,0x2F,0x4,0x2F,0x4
	.DB  0x2F,0x4,0x2F,0x4,0x2F,0x4,0x2F,0x4
	.DB  0x2F,0x4,0x2F,0x4,0x2F,0x4,0x2F,0x4
	.DB  0x2F,0x4,0x2F,0x4,0x2E,0x4,0x2E,0x4
	.DB  0x2E,0x4,0x2E,0x4,0x2E,0x4,0x2E,0x4
	.DB  0x2E,0x4,0x2E,0x4,0x2E,0x4,0x2E,0x4
	.DB  0x2E,0x4,0x2E,0x4,0x2E,0x4,0x2D,0x4
	.DB  0x2D,0x4,0x2D,0x4,0x2D,0x4,0x2D,0x4
	.DB  0x2D,0x4,0x2D,0x4,0x2D,0x4,0x2D,0x4
	.DB  0x2D,0x4,0x2D,0x4,0x2D,0x4,0x2D,0x4
	.DB  0x2C,0x4,0x2C,0x4,0x2C,0x4,0x2C,0x4
	.DB  0x2C,0x4,0x2C,0x4,0x2C,0x4,0x2C,0x4
	.DB  0x2C,0x4,0x2C,0x4,0x2C,0x4,0x2C,0x4
	.DB  0x2B,0x4,0x2B,0x4,0x2B,0x4,0x2B,0x4
	.DB  0x2B,0x4,0x2B,0x4,0x2B,0x4,0x2B,0x4
	.DB  0x2B,0x4,0x2B,0x4,0x2B,0x4,0x2B,0x4
	.DB  0x2B,0x4,0x2A,0x4,0x2A,0x4,0x2A,0x4
	.DB  0x2A,0x4,0x2A,0x4,0x2A,0x4,0x2A,0x4
	.DB  0x2A,0x4,0x2A,0x4,0x2A,0x4,0x2A,0x4
	.DB  0x2A,0x4,0x2A,0x4,0x29,0x4,0x29,0x4
	.DB  0x29,0x4,0x29,0x4,0x29,0x4,0x29,0x4
	.DB  0x29,0x4,0x29,0x4,0x29,0x4,0x29,0x4
	.DB  0x29,0x4,0x29,0x4,0x28,0x4,0x28,0x4
	.DB  0x28,0x4,0x28,0x4,0x28,0x4,0x28,0x4
	.DB  0x28,0x4,0x28,0x4,0x28,0x4,0x28,0x4
	.DB  0x28,0x4,0x28,0x4,0x28,0x4,0x27,0x4
	.DB  0x27,0x4,0x27,0x4,0x27,0x4,0x27,0x4
	.DB  0x27,0x4,0x27,0x4,0x27,0x4,0x27,0x4
	.DB  0x27,0x4,0x27,0x4,0x27,0x4,0x26,0x4
	.DB  0x26,0x4,0x26,0x4,0x26,0x4,0x26,0x4
	.DB  0x26,0x4,0x26,0x4,0x26,0x4,0x26,0x4
	.DB  0x26,0x4,0x26,0x4,0x26,0x4,0x26,0x4
	.DB  0x25,0x4,0x25,0x4,0x25,0x4,0x25,0x4
	.DB  0x25,0x4,0x25,0x4,0x25,0x4,0x25,0x4
	.DB  0x25,0x4,0x25,0x4,0x25,0x4,0x25,0x4
	.DB  0x24,0x4,0x24,0x4,0x24,0x4,0x24,0x4
	.DB  0x24,0x4,0x24,0x4,0x24,0x4,0x24,0x4
	.DB  0x24,0x4,0x24,0x4,0x24,0x4,0x24,0x4
	.DB  0x24,0x4,0x23,0x4,0x23,0x4,0x23,0x4
	.DB  0x23,0x4,0x23,0x4,0x23,0x4,0x23,0x4
	.DB  0x23,0x4,0x23,0x4,0x23,0x4,0x23,0x4
	.DB  0x23,0x4,0x23,0x4,0x22,0x4,0x22,0x4
	.DB  0x22,0x4,0x22,0x4,0x22,0x4,0x22,0x4
	.DB  0x22,0x4,0x22,0x4,0x22,0x4,0x22,0x4
	.DB  0x22,0x4,0x22,0x4,0x21,0x4,0x21,0x4
	.DB  0x21,0x4,0x21,0x4,0x21,0x4,0x21,0x4
	.DB  0x21,0x4,0x21,0x4,0x21,0x4,0x21,0x4
	.DB  0x21,0x4,0x21,0x4,0x21,0x4,0x20,0x4
	.DB  0x20,0x4,0x20,0x4,0x20,0x4,0x20,0x4
	.DB  0x20,0x4,0x20,0x4,0x20,0x4,0x20,0x4
	.DB  0x20,0x4,0x20,0x4,0x20,0x4,0x1F,0x4
	.DB  0x1F,0x4,0x1F,0x4,0x1F,0x4,0x1F,0x4
	.DB  0x1F,0x4,0x1F,0x4,0x1F,0x4,0x1F,0x4
	.DB  0x1F,0x4,0x1F,0x4,0x1F,0x4,0x1F,0x4
	.DB  0x1E,0x4,0x1E,0x4,0x1E,0x4,0x1E,0x4
	.DB  0x1E,0x4,0x1E,0x4,0x1E,0x4,0x1E,0x4
	.DB  0x1E,0x4,0x1E,0x4,0x1E,0x4,0x1E,0x4
	.DB  0x1D,0x4,0x1D,0x4,0x1D,0x4,0x1D,0x4
	.DB  0x1D,0x4,0x1D,0x4,0x1D,0x4,0x1D,0x4
	.DB  0x1D,0x4,0x1D,0x4,0x1D,0x4,0x1D,0x4
	.DB  0x1D,0x4,0x1C,0x4,0x1C,0x4,0x1C,0x4
	.DB  0x1C,0x4,0x1C,0x4,0x1C,0x4,0x1C,0x4
	.DB  0x1C,0x4,0x1C,0x4,0x1C,0x4,0x1C,0x4
	.DB  0x1C,0x4,0x1B,0x4,0x1B,0x4,0x1B,0x4
	.DB  0x1B,0x4,0x1B,0x4,0x1B,0x4,0x1B,0x4
	.DB  0x1B,0x4,0x1B,0x4,0x1B,0x4,0x1B,0x4
	.DB  0x1B,0x4,0x1B,0x4,0x1A,0x4,0x1A,0x4
	.DB  0x1A,0x4,0x1A,0x4,0x1A,0x4,0x1A,0x4
	.DB  0x1A,0x4,0x1A,0x4,0x1A,0x4,0x1A,0x4
	.DB  0x1A,0x4,0x1A,0x4,0x19,0x4,0x19,0x4
	.DB  0x19,0x4,0x19,0x4,0x19,0x4,0x19,0x4
	.DB  0x19,0x4,0x19,0x4,0x19,0x4,0x19,0x4
	.DB  0x19,0x4,0x19,0x4,0x19,0x4,0x18,0x4
	.DB  0x18,0x4,0x18,0x4,0x18,0x4,0x18,0x4
	.DB  0x18,0x4,0x18,0x4,0x18,0x4,0x18,0x4
	.DB  0x18,0x4,0x18,0x4,0x18,0x4,0x17,0x4
	.DB  0x17,0x4,0x17,0x4,0x17,0x4,0x17,0x4
	.DB  0x17,0x4,0x17,0x4,0x17,0x4,0x17,0x4
	.DB  0x17,0x4,0x17,0x4,0x17,0x4,0x17,0x4
	.DB  0x16,0x4,0x16,0x4,0x16,0x4,0x16,0x4
	.DB  0x16,0x4,0x16,0x4,0x16,0x4,0x16,0x4
	.DB  0x16,0x4,0x16,0x4,0x16,0x4,0x16,0x4
	.DB  0x15,0x4,0x15,0x4,0x15,0x4,0x15,0x4
	.DB  0x15,0x4,0x15,0x4,0x15,0x4,0x15,0x4
	.DB  0x15,0x4,0x15,0x4,0x15,0x4,0x15,0x4
	.DB  0x15,0x4,0x14,0x4,0x14,0x4,0x14,0x4
	.DB  0x14,0x4,0x14,0x4,0x14,0x4,0x14,0x4
	.DB  0x14,0x4,0x14,0x4,0x14,0x4,0x14,0x4
	.DB  0x14,0x4,0x13,0x4,0x13,0x4,0x13,0x4
	.DB  0x13,0x4,0x13,0x4,0x13,0x4,0x13,0x4
	.DB  0x13,0x4,0x13,0x4,0x13,0x4,0x13,0x4
	.DB  0x13,0x4,0x12,0x4,0x12,0x4,0x12,0x4
	.DB  0x12,0x4,0x12,0x4,0x12,0x4,0x12,0x4
	.DB  0x12,0x4,0x12,0x4,0x12,0x4,0x12,0x4
	.DB  0x12,0x4,0x12,0x4,0x11,0x4,0x11,0x4
	.DB  0x11,0x4,0x11,0x4,0x11,0x4,0x11,0x4
	.DB  0x11,0x4,0x11,0x4,0x11,0x4,0x11,0x4
	.DB  0x11,0x4,0x11,0x4,0x10,0x4,0x10,0x4
	.DB  0x10,0x4,0x10,0x4,0x10,0x4,0x10,0x4
	.DB  0x10,0x4,0x10,0x4,0x10,0x4,0x10,0x4
	.DB  0x10,0x4,0x10,0x4,0x10,0x4,0xF,0x4
	.DB  0xF,0x4,0xF,0x4,0xF,0x4,0xF,0x4
	.DB  0xF,0x4,0xF,0x4,0xF,0x4,0xF,0x4
	.DB  0xF,0x4,0xF,0x4,0xF,0x4,0xE,0x4
	.DB  0xE,0x4,0xE,0x4,0xE,0x4,0xE,0x4
	.DB  0xE,0x4,0xE,0x4,0xE,0x4,0xE,0x4
	.DB  0xE,0x4,0xE,0x4,0xE,0x4,0xD,0x4
	.DB  0xD,0x4,0xD,0x4,0xD,0x4,0xD,0x4
	.DB  0xD,0x4,0xD,0x4,0xD,0x4,0xD,0x4
	.DB  0xD,0x4,0xD,0x4,0xD,0x4,0xD,0x4
	.DB  0xC,0x4,0xC,0x4,0xC,0x4,0xC,0x4
	.DB  0xC,0x4,0xC,0x4,0xC,0x4,0xC,0x4
	.DB  0xC,0x4,0xC,0x4,0xC,0x4,0xC,0x4
	.DB  0xB,0x4,0xB,0x4,0xB,0x4,0xB,0x4
	.DB  0xB,0x4,0xB,0x4,0xB,0x4,0xB,0x4
	.DB  0xB,0x4,0xB,0x4,0xB,0x4,0xB,0x4
	.DB  0xA,0x4,0xA,0x4,0xA,0x4,0xA,0x4
	.DB  0xA,0x4,0xA,0x4,0xA,0x4,0xA,0x4
	.DB  0xA,0x4,0xA,0x4,0xA,0x4,0xA,0x4
	.DB  0xA,0x4,0x9,0x4,0x9,0x4,0x9,0x4
	.DB  0x9,0x4,0x9,0x4,0x9,0x4,0x9,0x4
	.DB  0x9,0x4,0x9,0x4,0x9,0x4,0x9,0x4
	.DB  0x9,0x4,0x8,0x4,0x8,0x4,0x8,0x4
	.DB  0x8,0x4,0x8,0x4,0x8,0x4,0x8,0x4
	.DB  0x8,0x4,0x8,0x4,0x8,0x4,0x8,0x4
	.DB  0x8,0x4,0x7,0x4,0x7,0x4,0x7,0x4
	.DB  0x7,0x4,0x7,0x4,0x7,0x4,0x7,0x4
	.DB  0x7,0x4,0x7,0x4,0x7,0x4,0x7,0x4
	.DB  0x7,0x4,0x7,0x4,0x6,0x4,0x6,0x4
	.DB  0x6,0x4,0x6,0x4,0x6,0x4,0x6,0x4
	.DB  0x6,0x4,0x6,0x4,0x6,0x4,0x6,0x4
	.DB  0x6,0x4,0x6,0x4,0x5,0x4,0x5,0x4
	.DB  0x5,0x4,0x5,0x4,0x5,0x4,0x5,0x4
	.DB  0x5,0x4,0x5,0x4,0x5,0x4,0x5,0x4
	.DB  0x5,0x4,0x5,0x4,0x4,0x4,0x4,0x4
	.DB  0x4,0x4,0x4,0x4,0x4,0x4,0x4,0x4
	.DB  0x4,0x4,0x4,0x4,0x4,0x4,0x4,0x4
	.DB  0x4,0x4,0x4,0x4,0x3,0x4,0x3,0x4
	.DB  0x3,0x4,0x3,0x4,0x3,0x4,0x3,0x4
	.DB  0x3,0x4,0x3,0x4,0x3,0x4,0x3,0x4
	.DB  0x3,0x4,0x3,0x4,0x3,0x4,0x2,0x4
	.DB  0x2,0x4,0x2,0x4,0x2,0x4,0x2,0x4
	.DB  0x2,0x4,0x2,0x4,0x2,0x4,0x2,0x4
	.DB  0x2,0x4,0x2,0x4,0x2,0x4,0x1,0x4
	.DB  0x1,0x4,0x1,0x4,0x1,0x4,0x1,0x4
	.DB  0x1,0x4,0x1,0x4,0x1,0x4,0x1,0x4
	.DB  0x1,0x4,0x1,0x4,0x1,0x4,0x0,0x4
	.DB  0x0,0x4,0x0,0x4,0x0,0x4,0x0,0x4
	.DB  0x0,0x4,0x0,0x4,0x0,0x4,0x0,0x4
	.DB  0x0,0x4,0x0,0x4,0x0,0x4,0xFF,0x3
	.DB  0xFF,0x3,0xFF,0x3,0xFF,0x3,0xFF,0x3
	.DB  0xFF,0x3,0xFF,0x3,0xFF,0x3,0xFF,0x3
	.DB  0xFF,0x3,0xFF,0x3,0xFF,0x3,0xFF,0x3
	.DB  0xFE,0x3,0xFE,0x3,0xFE,0x3,0xFE,0x3
	.DB  0xFE,0x3,0xFE,0x3,0xFE,0x3,0xFE,0x3
	.DB  0xFE,0x3,0xFE,0x3,0xFE,0x3,0xFE,0x3
	.DB  0xFD,0x3,0xFD,0x3,0xFD,0x3,0xFD,0x3
	.DB  0xFD,0x3,0xFD,0x3,0xFD,0x3,0xFD,0x3
	.DB  0xFD,0x3,0xFD,0x3
_tbl10_G100:
	.DB  0x10,0x27,0xE8,0x3,0x64,0x0,0xA,0x0
	.DB  0x1,0x0
_tbl16_G100:
	.DB  0x0,0x10,0x0,0x1,0x10,0x0,0x1,0x0

_0x3:
	.DB  0x0,0x0,0xE7,0xFF,0xF1,0xFF,0xFB,0xFF
	.DB  0x5,0x0,0xF,0x0,0x19
_0x4:
	.DB  0x90,0x80,0xA0,0x20,0x60,0x40,0x50,0x10
_0x5:
	.DB  0x1,0x5,0x4,0x6,0x2,0xA,0x8,0x9
_0x6:
	.DB  0x4C,0x4
_0x7:
	.DB  0x4C,0x4
_0x8:
	.DB  0xFF,0xFF
_0x9:
	.DB  0xFF,0xFF
_0xA:
	.DB  0x3
_0xB:
	.DB  0x1
_0xC:
	.DB  0x4
_0xD:
	.DB  0x64
_0xE:
	.DB  0xFF,0xFF,0xFF
_0xF:
	.DB  0xFF
_0x92:
	.DB  0x0,0x0,0x0,0x0,0x0,0x0,0x0,0x2A
	.DB  0x0,0x0
_0x0:
	.DB  0x54,0x65,0x73,0x74,0x69,0x6E,0x67,0x0
	.DB  0x25,0x64,0x20,0x3A,0x20,0x0,0x25,0x64
	.DB  0x0,0x4D,0x41,0x58,0x0,0x6D,0x69,0x6E
	.DB  0x0,0x54,0x45,0x53,0x54,0x69,0x6E,0x67
	.DB  0x0,0x41,0x6E,0x67,0x6C,0x65,0x0,0x47
	.DB  0x4F,0x21,0x21,0x0,0x53,0x70,0x65,0x65
	.DB  0x64,0x21,0x21,0x0,0x31,0x2E,0x50,0x53
	.DB  0x44,0x20,0x54,0x45,0x53,0x54,0x0,0x32
	.DB  0x2E,0x43,0x44,0x53,0x0,0x33,0x2E,0x50
	.DB  0x53,0x44,0x20,0x54,0x75,0x6E,0x69,0x6E
	.DB  0x67,0x0,0x34,0x2E,0x63,0x64,0x73,0x20
	.DB  0x54,0x75,0x6E,0x69,0x6E,0x67,0x0,0x35
	.DB  0x2E,0x4D,0x6F,0x74,0x6F,0x72,0x5F,0x74
	.DB  0x65,0x73,0x74,0x0,0x36,0x2E,0x43,0x6F
	.DB  0x73,0x0,0x37,0x2E,0x4E,0x61,0x76,0x69
	.DB  0x67,0x61,0x74,0x65,0x0
_0x2040003:
	.DB  0x80,0xC0
_0x20A0060:
	.DB  0x1
_0x20A0000:
	.DB  0x2D,0x4E,0x41,0x4E,0x0,0x49,0x4E,0x46
	.DB  0x0

__GLOBAL_INI_TBL:
	.DW  0x08
	.DW  _RMotorPhase
	.DW  _0x4*2

	.DW  0x08
	.DW  _LMotorPhase
	.DW  _0x5*2

	.DW  0x02
	.DW  _SearchTableIndex
	.DW  _0x6*2

	.DW  0x02
	.DW  _TableIndexTarget
	.DW  _0x7*2

	.DW  0x02
	.DW  _OCRr
	.DW  _0x8*2

	.DW  0x02
	.DW  _OCRl
	.DW  _0x9*2

	.DW  0x01
	.DW  _minustop
	.DW  _0xA*2

	.DW  0x01
	.DW  _mux
	.DW  _0xC*2

	.DW  0x01
	.DW  _num_sample
	.DW  _0xD*2

	.DW  0x03
	.DW  _dist_min
	.DW  _0xE*2

	.DW  0x01
	.DW  _cds_min
	.DW  _0xF*2

	.DW  0x0A
	.DW  0x04
	.DW  _0x92*2

	.DW  0x02
	.DW  __base_y_G102
	.DW  _0x2040003*2

	.DW  0x01
	.DW  __seed_G105
	.DW  _0x20A0060*2

_0xFFFFFFFF:
	.DW  0

__RESET:
	CLI
	CLR  R30
	OUT  EECR,R30

;INTERRUPT VECTORS ARE PLACED
;AT THE START OF FLASH
	LDI  R31,1
	OUT  MCUCR,R31
	OUT  MCUCR,R30
	STS  XMCRB,R30

;DISABLE WATCHDOG
	LDI  R31,0x18
	OUT  WDTCR,R31
	OUT  WDTCR,R30

;CLEAR R2-R14
	LDI  R24,(14-2)+1
	LDI  R26,2
	CLR  R27
__CLEAR_REG:
	ST   X+,R30
	DEC  R24
	BRNE __CLEAR_REG

;CLEAR SRAM
	LDI  R24,LOW(__CLEAR_SRAM_SIZE)
	LDI  R25,HIGH(__CLEAR_SRAM_SIZE)
	LDI  R26,LOW(__SRAM_START)
	LDI  R27,HIGH(__SRAM_START)
__CLEAR_SRAM:
	ST   X+,R30
	SBIW R24,1
	BRNE __CLEAR_SRAM

;GLOBAL VARIABLES INITIALIZATION
	LDI  R30,LOW(__GLOBAL_INI_TBL*2)
	LDI  R31,HIGH(__GLOBAL_INI_TBL*2)
__GLOBAL_INI_NEXT:
	LPM  R24,Z+
	LPM  R25,Z+
	SBIW R24,0
	BREQ __GLOBAL_INI_END
	LPM  R26,Z+
	LPM  R27,Z+
	LPM  R0,Z+
	LPM  R1,Z+
	MOVW R22,R30
	MOVW R30,R0
__GLOBAL_INI_LOOP:
	LPM  R0,Z+
	ST   X+,R0
	SBIW R24,1
	BRNE __GLOBAL_INI_LOOP
	MOVW R30,R22
	RJMP __GLOBAL_INI_NEXT
__GLOBAL_INI_END:

	OUT  RAMPZ,R24

;HARDWARE STACK POINTER INITIALIZATION
	LDI  R30,LOW(__SRAM_END-__HEAP_SIZE)
	OUT  SPL,R30
	LDI  R30,HIGH(__SRAM_END-__HEAP_SIZE)
	OUT  SPH,R30

;DATA STACK POINTER INITIALIZATION
	LDI  R28,LOW(__SRAM_START+__DSTACK_SIZE)
	LDI  R29,HIGH(__SRAM_START+__DSTACK_SIZE)

	JMP  _main

	.ESEG
	.ORG 0

	.DSEG
	.ORG 0x500

	.CSEG
;/*****************************************************
;This program was produced by the
;CodeWizardAVR V2.05.0 Professional
;Automatic Program Generator
; Copyright 1998-2010 Pavel Haiduc, HP InfoTech s.r.l.
;http://www.hpinfotech.com
;
;Project : BC cart
;Version : 2.1.0
;Date    : 2017-11-29
;Author  : Mrjohd
;Company : Univ. Chungnam
;Comments: HOLY FUCKING SHIT
;
;
;Chip type               : ATmega128
;Program type            : Application
;AVR Core Clock frequency: 16.000000 MHz
;Memory model            : Small
;External RAM size       : 0
;Data Stack size         : 1024
;*****************************************************/
;
;#include <mega128.h>
	#ifndef __SLEEP_DEFINED__
	#define __SLEEP_DEFINED__
	.EQU __se_bit=0x20
	.EQU __sm_mask=0x1C
	.EQU __sm_powerdown=0x10
	.EQU __sm_powersave=0x18
	.EQU __sm_standby=0x14
	.EQU __sm_ext_standby=0x1C
	.EQU __sm_adc_noise_red=0x08
	.SET power_ctrl_reg=mcucr
	#endif
;#include <delay.h>
;#include <stdio.h>
;#include <math.h> // LUT !!!
;#include "AccTable.h"
;
;// Alphanumeric LCD Module functions
;//#include <alcd.h>
;#include <lcd.h>
;#asm
 .equ __lcd_port = 0x12 //PORTD 8
; 0000 0023 #endasm
;// About ADC
;#define ADC_VREF_TYPE 0x60
;//About Switch
;#define Left_switch_on    (!PINE.4)
;#define Middle_switch_on  (!PINE.5)
;#define Right_switch_on   (!PINE.6)
;#define Left_switch_off   (PINE.4)
;#define Middle_switch_off (PINE.5)
;#define Right_switch_off  (PINE.6)
;//*****************************************************************************************************************
;//About Motor
;#define Motor_on  ETIMSK = 0x10, TIMSK = 0x10
;#define Motor_off ETIMSK = 0x00, TIMSK = 0x00
;//*****************************************************************************************************************
;// ****** Declare your global variables here  ******
;unsigned char h = 0; // counting variable for ADC interrupt
;unsigned char sam_num = 0; // counting variable for ADC interrupt
;unsigned char i = 0; // counting variable for function
;unsigned char j = 0; // counting variable for function
;//*****************************************************************************************************************
;// LCD
;unsigned char lcd_data[40];
;//*****************************************************************************************************************
;//About position
;signed int position = 0;
;signed int position_array[8] = {0, -25, -15, -5, 5, 15, 25, 0}; //position     

	.DSEG
;unsigned char Pgain=42;
;//*****************************************************************************************************************
;// Motor
;unsigned char RMotorPhase[8] = {0x90, 0x80, 0xa0, 0x20, 0x60, 0x40, 0x50, 0x10};
;unsigned char LMotorPhase[8] = {0x01, 0x05, 0x04, 0x06, 0x02, 0x0A, 0x08, 0x09};
;unsigned char RPhaseIndex = 0;
;unsigned char LPhaseIndex = 0;
;signed long  RaccTableIndex = 0;
;signed long  LaccTableIndex = 0;
;signed long  SearchTableIndex = 1100;
;signed long  TableIndexTarget = 1100;
;signed long  OCRr = 65535;
;signed long  OCRl = 65535;
;signed long temp = 0;
;signed long  templ=0;
;signed long  tempr=0;
;unsigned char stop_flag = 0;
;signed int  denominator = 0;
;unsigned char step = 0;
;unsigned char minustop = 3;
;
;//About Control flag
;unsigned char Timer_flag = 1;
;//*****************************************************************************************************************
;// ADC
;//unsigned char adc_data[4][100] = {0}; //adc  IR//cds 
;unsigned char mux = 4;
;unsigned char num_sample = 100;
;unsigned char d_flag = 0;
;
;// * PSD
;unsigned char dist_data[3][100] = {0}; //adc  PSD  
;unsigned char dist_max[3] = {0, 0, 0}; //tuning      
;unsigned char dist_min[3] = {255, 255, 255};
;unsigned int dist_sum[3]={0};
;unsigned char dist_mean[3]={0};
;
;// * cds
;unsigned char cds_data[100] = {0}; //adc  cds 
;unsigned char cds_max = 0; //tuning      
;unsigned char cds_min = 255;
;unsigned int cds_sum = 0;
;unsigned char cds_mean = 0;
;
;//*****************************************************************************************************************
;// Position
;unsigned char leave_flag = 0;
;unsigned char approach = 0;
;unsigned char detach = 0;
;//unsigned char delta = 0;
;unsigned long degree_factor = 0; //   
;unsigned long head_reach = 0;
;unsigned long distance_Max;  // PSD &  
;unsigned long distance_min;
;signed int dir = 0;
;unsigned char mode = 0;
;
;//*****************************************************************************************************************
;// Timer1 output compare A interrupt service routine
;interrupt [TIM1_COMPA] void timer1_compa_isr(void)
; 0000 007A {

	.CSEG
_timer1_compa_isr:
	CALL SUBOPT_0x0
; 0000 007B     // Place your code here
; 0000 007C     RPhaseIndex++;
	INC  R10
; 0000 007D     RPhaseIndex &= 0x07;
	LDI  R30,LOW(7)
	AND  R10,R30
; 0000 007E 
; 0000 007F     if(TableIndexTarget > RaccTableIndex) RaccTableIndex++;
	CALL SUBOPT_0x1
	CALL __CPD12
	BRGE _0x10
	LDI  R26,LOW(_RaccTableIndex)
	LDI  R27,HIGH(_RaccTableIndex)
	CALL SUBOPT_0x2
; 0000 0080     if(TableIndexTarget < RaccTableIndex) //RaccTableIndex--;
_0x10:
	CALL SUBOPT_0x1
	CALL __CPD21
	BRGE _0x11
; 0000 0081     {
; 0000 0082         if(stop_flag == 1) RaccTableIndex -= minustop;
	LDI  R30,LOW(1)
	CP   R30,R12
	BRNE _0x12
	LDS  R30,_minustop
	LDI  R31,0
	CALL SUBOPT_0x3
	CALL __CWD1
	CALL __SUBD21
	STS  _RaccTableIndex,R26
	STS  _RaccTableIndex+1,R27
	STS  _RaccTableIndex+2,R24
	STS  _RaccTableIndex+3,R25
; 0000 0083         else RaccTableIndex--;
	RJMP _0x13
_0x12:
	LDI  R26,LOW(_RaccTableIndex)
	LDI  R27,HIGH(_RaccTableIndex)
	CALL SUBOPT_0x4
; 0000 0084     }
_0x13:
; 0000 0085 
; 0000 0086     if(RaccTableIndex <= 0) RaccTableIndex = 0;
_0x11:
	CALL SUBOPT_0x3
	CALL __CPD02
	BRLT _0x14
	LDI  R30,LOW(0)
	STS  _RaccTableIndex,R30
	STS  _RaccTableIndex+1,R30
	STS  _RaccTableIndex+2,R30
	STS  _RaccTableIndex+3,R30
; 0000 0087 
; 0000 0088     if(!mode)    OCRr = table[RaccTableIndex]; // Motor TEST mode
_0x14:
	LDS  R30,_mode
	CPI  R30,0
	BRNE _0x15
	CALL SUBOPT_0x5
	CALL __GETW1PF
	CLR  R22
	CLR  R23
	CALL SUBOPT_0x6
; 0000 0089     if(mode)     OCRr = tempr;   // Motor running mode
_0x15:
	LDS  R30,_mode
	CPI  R30,0
	BREQ _0x16
	LDS  R30,_tempr
	LDS  R31,_tempr+1
	LDS  R22,_tempr+2
	LDS  R23,_tempr+3
	CALL SUBOPT_0x6
; 0000 008A     OCR1AH = OCRr >> 8;
_0x16:
	LDS  R26,_OCRr
	LDS  R27,_OCRr+1
	LDS  R24,_OCRr+2
	LDS  R25,_OCRr+3
	LDI  R30,LOW(8)
	CALL __ASRD12
	OUT  0x2B,R30
; 0000 008B     OCR1AL = OCRr;
	LDS  R30,_OCRr
	OUT  0x2A,R30
; 0000 008C 
; 0000 008D     PORTC = RMotorPhase[RPhaseIndex] | LMotorPhase[LPhaseIndex];
	RJMP _0x91
; 0000 008E 
; 0000 008F     step++;
; 0000 0090 
; 0000 0091 }
;
;// Timer3 output compare A interrupt service routine
;interrupt [TIM3_COMPA] void timer3_compa_isr(void)
; 0000 0095 {
_timer3_compa_isr:
	CALL SUBOPT_0x0
; 0000 0096     // Place your code here
; 0000 0097     LPhaseIndex++;
	INC  R13
; 0000 0098     LPhaseIndex &= 0x07;
	LDI  R30,LOW(7)
	AND  R13,R30
; 0000 0099 
; 0000 009A     if(TableIndexTarget > LaccTableIndex) LaccTableIndex++;
	CALL SUBOPT_0x7
	CALL __CPD12
	BRGE _0x17
	LDI  R26,LOW(_LaccTableIndex)
	LDI  R27,HIGH(_LaccTableIndex)
	CALL SUBOPT_0x2
; 0000 009B     if(TableIndexTarget < LaccTableIndex) //LaccTableIndex--;
_0x17:
	CALL SUBOPT_0x7
	CALL __CPD21
	BRGE _0x18
; 0000 009C     {
; 0000 009D         if(stop_flag == 1) LaccTableIndex -= minustop;
	LDI  R30,LOW(1)
	CP   R30,R12
	BRNE _0x19
	LDS  R30,_minustop
	LDI  R31,0
	CALL SUBOPT_0x8
	CALL __CWD1
	CALL __SUBD21
	STS  _LaccTableIndex,R26
	STS  _LaccTableIndex+1,R27
	STS  _LaccTableIndex+2,R24
	STS  _LaccTableIndex+3,R25
; 0000 009E         else LaccTableIndex--;
	RJMP _0x1A
_0x19:
	LDI  R26,LOW(_LaccTableIndex)
	LDI  R27,HIGH(_LaccTableIndex)
	CALL SUBOPT_0x4
; 0000 009F     }
_0x1A:
; 0000 00A0 
; 0000 00A1     if(LaccTableIndex <= 0) LaccTableIndex = 0;
_0x18:
	CALL SUBOPT_0x8
	CALL __CPD02
	BRLT _0x1B
	LDI  R30,LOW(0)
	STS  _LaccTableIndex,R30
	STS  _LaccTableIndex+1,R30
	STS  _LaccTableIndex+2,R30
	STS  _LaccTableIndex+3,R30
; 0000 00A2 
; 0000 00A3     if(!mode)    OCRl = table[LaccTableIndex]; // Motor TEST mode
_0x1B:
	LDS  R30,_mode
	CPI  R30,0
	BRNE _0x1C
	CALL SUBOPT_0x9
	CALL __GETW1PF
	CLR  R22
	CLR  R23
	CALL SUBOPT_0xA
; 0000 00A4     if(mode)     OCRl = templ;   // Motor running mode
_0x1C:
	LDS  R30,_mode
	CPI  R30,0
	BREQ _0x1D
	LDS  R30,_templ
	LDS  R31,_templ+1
	LDS  R22,_templ+2
	LDS  R23,_templ+3
	CALL SUBOPT_0xA
; 0000 00A5     OCR3AH = OCRl >> 8;
_0x1D:
	LDS  R26,_OCRl
	LDS  R27,_OCRl+1
	LDS  R24,_OCRl+2
	LDS  R25,_OCRl+3
	LDI  R30,LOW(8)
	CALL __ASRD12
	STS  135,R30
; 0000 00A6     OCR3AL = OCRl;
	LDS  R30,_OCRl
	STS  134,R30
; 0000 00A7     PORTC = RMotorPhase[RPhaseIndex] | LMotorPhase[LPhaseIndex];
_0x91:
	MOV  R30,R10
	LDI  R31,0
	SUBI R30,LOW(-_RMotorPhase)
	SBCI R31,HIGH(-_RMotorPhase)
	LD   R26,Z
	MOV  R30,R13
	LDI  R31,0
	SUBI R30,LOW(-_LMotorPhase)
	SBCI R31,HIGH(-_LMotorPhase)
	LD   R30,Z
	OR   R30,R26
	OUT  0x15,R30
; 0000 00A8 
; 0000 00A9     step++;
	LDS  R30,_step
	SUBI R30,-LOW(1)
	STS  _step,R30
; 0000 00AA }
	LD   R30,Y+
	OUT  SREG,R30
	LD   R31,Y+
	LD   R30,Y+
	LD   R27,Y+
	LD   R26,Y+
	LD   R25,Y+
	LD   R24,Y+
	LD   R23,Y+
	LD   R22,Y+
	LD   R0,Y+
	RETI
;
;// ********************************* ADC interrupt service routine ************************************************
;interrupt [ADC_INT] void adc_isr(void)
; 0000 00AE {
_adc_isr:
	ST   -Y,R0
	ST   -Y,R1
	ST   -Y,R26
	ST   -Y,R27
	ST   -Y,R30
	ST   -Y,R31
	IN   R30,SREG
	ST   -Y,R30
; 0000 00AF 
; 0000 00B0     // Read the AD conversion result
; 0000 00B1     for (h = 0; h<=6; h++);
	CLR  R5
_0x1F:
	LDI  R30,LOW(6)
	CP   R30,R5
	BRLO _0x20
	INC  R5
	RJMP _0x1F
_0x20:
; 0000 00B2     sam_num++;
	INC  R4
; 0000 00B3     if(mux>4)   dist_data[mux-5][sam_num] = ADCH;
	LDS  R26,_mux
	CPI  R26,LOW(0x5)
	BRLO _0x21
	LDS  R30,_mux
	LDI  R31,0
	SBIW R30,5
	LDI  R26,LOW(100)
	LDI  R27,HIGH(100)
	CALL __MULW12U
	SUBI R30,LOW(-_dist_data)
	SBCI R31,HIGH(-_dist_data)
	MOVW R26,R30
	CLR  R30
	ADD  R26,R4
	ADC  R27,R30
	IN   R30,0x5
	ST   X,R30
; 0000 00B4     else if(mux==4) cds_data[sam_num] = ADCH;  //ADC high 
	RJMP _0x22
_0x21:
	LDS  R26,_mux
	CPI  R26,LOW(0x4)
	BRNE _0x23
	MOV  R26,R4
	LDI  R27,0
	SUBI R26,LOW(-_cds_data)
	SBCI R27,HIGH(-_cds_data)
	IN   R30,0x5
	ST   X,R30
; 0000 00B5     else;
_0x23:
_0x22:
; 0000 00B6 
; 0000 00B7     if(sam_num == num_sample)
	LDS  R30,_num_sample
	CP   R30,R4
	BRNE _0x25
; 0000 00B8     {
; 0000 00B9         mux++;
	LDS  R30,_mux
	SUBI R30,-LOW(1)
	STS  _mux,R30
; 0000 00BA         sam_num=0;
	CLR  R4
; 0000 00BB         d_flag=1;
	LDI  R30,LOW(1)
	STS  _d_flag,R30
; 0000 00BC     }
; 0000 00BD 
; 0000 00BE     if(mux > 7) mux = 4;    // PSD : PF5, 6, 7
_0x25:
	LDS  R26,_mux
	CPI  R26,LOW(0x8)
	BRLO _0x26
	LDI  R30,LOW(4)
	STS  _mux,R30
; 0000 00BF     ADMUX = mux | 0x60;
_0x26:
	LDS  R30,_mux
	ORI  R30,LOW(0x60)
	OUT  0x7,R30
; 0000 00C0     ADCSRA |= 0x40;
	SBI  0x6,6
; 0000 00C1 }
	LD   R30,Y+
	OUT  SREG,R30
	LD   R31,Y+
	LD   R30,Y+
	LD   R27,Y+
	LD   R26,Y+
	LD   R1,Y+
	LD   R0,Y+
	RETI
;/*
;// Read the AD conversion result
;void read_adc(unsigned char adc_input)
;{
;    ADMUX = adc_input |(ADC_VREF_TYPE & 0xff);  // ADMUX = 0x60, ADC 
;    // Delay needed for the stabilization of the ADC input voltage
;    delay_us(10);
;    // Start the AD conversion
;    ADCSRA|=0x40;       // ADSC  set, 
;    // Wait for the AD conversion to complete
;    while ((ADCSRA & 0x10)==0);  // ADIF  0(AD )
;    ADCSRA|=0x10;                // ADIF  set
;    adc_data[adc_input] = ADCH;
;}
;*/
;
;// ************************************** About PSD *************************************************
;// Side distance mean
;void mean_dist(void)
; 0000 00D5 {
_mean_dist:
; 0000 00D6     unsigned char psd_num = 0; // counting variable for function
; 0000 00D7     unsigned char num = 0; // counting variable for function
; 0000 00D8     while(!d_flag);
	ST   -Y,R17
	ST   -Y,R16
;	psd_num -> R17
;	num -> R16
	LDI  R17,0
	LDI  R16,0
_0x27:
	LDS  R30,_d_flag
	CPI  R30,0
	BREQ _0x27
; 0000 00D9     for(psd_num = 0; psd_num < 3; psd_num++)
	LDI  R17,LOW(0)
_0x2B:
	CPI  R17,3
	BRSH _0x2C
; 0000 00DA     {
; 0000 00DB         for(num = 0; num < num_sample; num++)
	LDI  R16,LOW(0)
_0x2E:
	LDS  R30,_num_sample
	CP   R16,R30
	BRSH _0x2F
; 0000 00DC             dist_sum[psd_num] += dist_data[psd_num][num];
	CALL SUBOPT_0xB
	ADD  R30,R26
	ADC  R31,R27
	MOVW R24,R30
	LD   R22,Z
	LDD  R23,Z+1
	LDI  R26,LOW(100)
	MUL  R17,R26
	MOVW R30,R0
	SUBI R30,LOW(-_dist_data)
	SBCI R31,HIGH(-_dist_data)
	MOVW R26,R30
	CLR  R30
	ADD  R26,R16
	ADC  R27,R30
	LD   R30,X
	LDI  R31,0
	ADD  R30,R22
	ADC  R31,R23
	MOVW R26,R24
	ST   X+,R30
	ST   X,R31
	SUBI R16,-1
	RJMP _0x2E
_0x2F:
; 0000 00DE dist_mean[psd_num] = dist_sum[psd_num]/num_sample;
	CALL SUBOPT_0xC
	MOVW R22,R30
	CALL SUBOPT_0xB
	ADD  R26,R30
	ADC  R27,R31
	CALL __GETW1P
	MOVW R26,R30
	LDS  R30,_num_sample
	LDI  R31,0
	CALL __DIVW21U
	MOVW R26,R22
	ST   X,R30
; 0000 00DF         dist_sum[psd_num] = 0;
	CALL SUBOPT_0xB
	ADD  R26,R30
	ADC  R27,R31
	LDI  R30,LOW(0)
	LDI  R31,HIGH(0)
	ST   X+,R30
	ST   X,R31
; 0000 00E0     }
	SUBI R17,-1
	RJMP _0x2B
_0x2C:
; 0000 00E1     d_flag=0;
	LDI  R30,LOW(0)
	STS  _d_flag,R30
; 0000 00E2     //delay_ms(10);
; 0000 00E3 }
	RJMP _0x20C0005
;//PSD test
;void PSD_test(void)
; 0000 00E6 {
_PSD_test:
; 0000 00E7     unsigned char m = 0;
; 0000 00E8     delay_ms(300);
	ST   -Y,R17
;	m -> R17
	LDI  R17,0
	CALL SUBOPT_0xD
; 0000 00E9 
; 0000 00EA     while(Middle_switch_off)
_0x30:
	SBIS 0x1,5
	RJMP _0x32
; 0000 00EB     {
; 0000 00EC         mean_dist();
	RCALL _mean_dist
; 0000 00ED 
; 0000 00EE         lcd_clear();
	CALL _lcd_clear
; 0000 00EF         if(Left_switch_on) m++;
	SBIS 0x1,4
	SUBI R17,-1
; 0000 00F0         if(Right_switch_on) m--;
	SBIS 0x1,6
	SUBI R17,1
; 0000 00F1         if(m>2)  m = 0;
	CPI  R17,3
	BRLO _0x35
	LDI  R17,LOW(0)
; 0000 00F2 
; 0000 00F3         lcd_clear();
_0x35:
	CALL SUBOPT_0xE
; 0000 00F4         lcd_gotoxy(0, 0);
; 0000 00F5         lcd_putsf("Testing");
; 0000 00F6 
; 0000 00F7         lcd_gotoxy(0, 1);
; 0000 00F8         sprintf(lcd_data, "%d : ", m);
	__POINTW1FN _0x0,8
	ST   -Y,R31
	ST   -Y,R30
	MOV  R30,R17
	CALL SUBOPT_0xF
; 0000 00F9         lcd_puts(lcd_data);
; 0000 00FA 
; 0000 00FB         lcd_gotoxy(5, 1);
	CALL SUBOPT_0x10
; 0000 00FC         sprintf(lcd_data, "%d", dist_mean[m]);
	CALL SUBOPT_0xC
	LD   R30,Z
	CALL SUBOPT_0xF
; 0000 00FD         lcd_puts(lcd_data);
; 0000 00FE 
; 0000 00FF         delay_ms(100);
	CALL SUBOPT_0x11
; 0000 0100     }
	RJMP _0x30
_0x32:
; 0000 0101 }
	RJMP _0x20C0004
;
;//PSD tuning
;void PSD_tuning()
; 0000 0105 {
_PSD_tuning:
; 0000 0106     unsigned char psd = 0;
; 0000 0107     unsigned char mode = 0;
; 0000 0108 
; 0000 0109     delay_ms(500);
	ST   -Y,R17
	ST   -Y,R16
;	psd -> R17
;	mode -> R16
	LDI  R17,0
	LDI  R16,0
	CALL SUBOPT_0x12
; 0000 010A 
; 0000 010B     while(Middle_switch_off)
_0x36:
	SBIS 0x1,5
	RJMP _0x38
; 0000 010C     {
; 0000 010D         mean_dist();
	RCALL _mean_dist
; 0000 010E 
; 0000 010F         lcd_clear();
	CALL _lcd_clear
; 0000 0110         if(Left_switch_on) mode++;
	SBIS 0x1,4
	SUBI R16,-1
; 0000 0111         if(Right_switch_on) mode--;
	SBIS 0x1,6
	SUBI R16,1
; 0000 0112         if(mode>3)  mode = 0;
	CPI  R16,4
	BRLO _0x3B
	LDI  R16,LOW(0)
; 0000 0113 
; 0000 0114         lcd_gotoxy(0, 0);
_0x3B:
	CALL SUBOPT_0x13
; 0000 0115         sprintf(lcd_data, "%d", mode);
	CALL SUBOPT_0x14
	CALL SUBOPT_0xF
; 0000 0116         lcd_puts(lcd_data);
; 0000 0117 
; 0000 0118         lcd_gotoxy(1, 0);
	LDI  R30,LOW(1)
	CALL SUBOPT_0x15
; 0000 0119         lcd_putsf("MAX");
	CALL SUBOPT_0x16
; 0000 011A 
; 0000 011B         lcd_gotoxy(5, 0);
; 0000 011C         lcd_putsf("min");
	CALL SUBOPT_0x17
; 0000 011D 
; 0000 011E         lcd_gotoxy(1, 1);
	LDI  R30,LOW(1)
	CALL SUBOPT_0x18
; 0000 011F         sprintf(lcd_data, "%d", dist_max[mode]);
	CALL SUBOPT_0x14
	LDI  R31,0
	SUBI R30,LOW(-_dist_max)
	SBCI R31,HIGH(-_dist_max)
	LD   R30,Z
	CALL SUBOPT_0xF
; 0000 0120         lcd_puts(lcd_data);
; 0000 0121 
; 0000 0122         lcd_gotoxy(5, 1);
	CALL SUBOPT_0x10
; 0000 0123         sprintf(lcd_data, "%d", dist_min[mode]);
	MOV  R30,R16
	LDI  R31,0
	SUBI R30,LOW(-_dist_min)
	SBCI R31,HIGH(-_dist_min)
	LD   R30,Z
	CALL SUBOPT_0xF
; 0000 0124         lcd_puts(lcd_data);
; 0000 0125 
; 0000 0126         if(dist_mean[psd] < dist_min[psd]) dist_min[psd] = dist_mean[psd];
	CALL SUBOPT_0x19
	SUBI R30,LOW(-_dist_min)
	SBCI R31,HIGH(-_dist_min)
	LD   R30,Z
	CP   R26,R30
	BRSH _0x3C
	MOV  R26,R17
	LDI  R27,0
	SUBI R26,LOW(-_dist_min)
	SBCI R27,HIGH(-_dist_min)
	CALL SUBOPT_0xC
	LD   R30,Z
	ST   X,R30
; 0000 0127         if(dist_mean[psd] > dist_max[psd]) dist_max[psd] = dist_mean[psd];
_0x3C:
	CALL SUBOPT_0x19
	SUBI R30,LOW(-_dist_max)
	SBCI R31,HIGH(-_dist_max)
	LD   R30,Z
	CP   R30,R26
	BRSH _0x3D
	MOV  R26,R17
	LDI  R27,0
	SUBI R26,LOW(-_dist_max)
	SBCI R27,HIGH(-_dist_max)
	CALL SUBOPT_0xC
	LD   R30,Z
	ST   X,R30
; 0000 0128 
; 0000 0129         delay_ms(100);
_0x3D:
	CALL SUBOPT_0x11
; 0000 012A         psd++;
	SUBI R17,-1
; 0000 012B         if(psd > 2) psd=0;
	CPI  R17,3
	BRLO _0x3E
	LDI  R17,LOW(0)
; 0000 012C     }
_0x3E:
	RJMP _0x36
_0x38:
; 0000 012D }
_0x20C0005:
	LD   R16,Y+
	LD   R17,Y+
	RET
;
;// ************************************* About cds *******************************************************
;void mean_cds(void)
; 0000 0131 {
_mean_cds:
; 0000 0132     unsigned char num = 0; // counting variable for function
; 0000 0133     while(!d_flag);
	ST   -Y,R17
;	num -> R17
	LDI  R17,0
_0x3F:
	LDS  R30,_d_flag
	CPI  R30,0
	BREQ _0x3F
; 0000 0134     for(num = 0; num < num_sample; num++)
	LDI  R17,LOW(0)
_0x43:
	LDS  R30,_num_sample
	CP   R17,R30
	BRSH _0x44
; 0000 0135         cds_sum += cds_data[num];
	MOV  R30,R17
	LDI  R31,0
	SUBI R30,LOW(-_cds_data)
	SBCI R31,HIGH(-_cds_data)
	LD   R30,Z
	CALL SUBOPT_0x1A
	ADD  R30,R26
	ADC  R31,R27
	STS  _cds_sum,R30
	STS  _cds_sum+1,R31
	SUBI R17,-1
	RJMP _0x43
_0x44:
; 0000 0137 cds_mean = cds_sum/num_sample;
	LDS  R30,_num_sample
	CALL SUBOPT_0x1A
	CALL __DIVW21U
	STS  _cds_mean,R30
; 0000 0138     cds_sum = 0;
	LDI  R30,LOW(0)
	STS  _cds_sum,R30
	STS  _cds_sum+1,R30
; 0000 0139 
; 0000 013A     d_flag=0;
	STS  _d_flag,R30
; 0000 013B     //delay_ms(10);
; 0000 013C }
_0x20C0004:
	LD   R17,Y+
	RET
;
;void cds_test(void)
; 0000 013F {
_cds_test:
; 0000 0140     delay_ms(300);
	CALL SUBOPT_0xD
; 0000 0141 
; 0000 0142     while(Middle_switch_off)
_0x45:
	SBIS 0x1,5
	RJMP _0x47
; 0000 0143     {
; 0000 0144         mean_cds();
	RCALL _mean_cds
; 0000 0145 
; 0000 0146         lcd_clear();
	CALL SUBOPT_0xE
; 0000 0147         lcd_gotoxy(0, 0);
; 0000 0148         lcd_putsf("Testing");
; 0000 0149 
; 0000 014A         lcd_gotoxy(0, 1);
; 0000 014B         sprintf(lcd_data, "%d", cds_data);
	CALL SUBOPT_0x1B
	CALL SUBOPT_0x1C
; 0000 014C         lcd_puts(lcd_data);
; 0000 014D 
; 0000 014E         delay_ms(200);
	LDI  R30,LOW(200)
	LDI  R31,HIGH(200)
	CALL SUBOPT_0x1D
; 0000 014F     }
	RJMP _0x45
_0x47:
; 0000 0150 }
	RET
;
;//cds tuning
;void cds_tuning()
; 0000 0154 {
_cds_tuning:
; 0000 0155     delay_ms(500);
	CALL SUBOPT_0x12
; 0000 0156 
; 0000 0157     while(Middle_switch_off)
_0x48:
	SBIS 0x1,5
	RJMP _0x4A
; 0000 0158     {
; 0000 0159         mean_cds();
	RCALL _mean_cds
; 0000 015A 
; 0000 015B         lcd_clear();
	CALL SUBOPT_0x1E
; 0000 015C         lcd_gotoxy(0, 0);
; 0000 015D         lcd_putsf("MAX");
	CALL SUBOPT_0x16
; 0000 015E 
; 0000 015F         lcd_gotoxy(5, 0);
; 0000 0160         lcd_putsf("min");
	CALL SUBOPT_0x17
; 0000 0161 
; 0000 0162         lcd_gotoxy(0, 1);
	LDI  R30,LOW(0)
	CALL SUBOPT_0x18
; 0000 0163         sprintf(lcd_data, "%d", cds_max);
	CALL SUBOPT_0x1F
	LDS  R30,_cds_max
	CALL SUBOPT_0xF
; 0000 0164         lcd_puts(lcd_data);
; 0000 0165 
; 0000 0166         lcd_gotoxy(5, 1);
	CALL SUBOPT_0x10
; 0000 0167         sprintf(lcd_data, "%d", cds_min);
	LDS  R30,_cds_min
	CALL SUBOPT_0xF
; 0000 0168         lcd_puts(lcd_data);
; 0000 0169 
; 0000 016A         if(cds_mean < cds_min) cds_min = cds_mean;
	LDS  R30,_cds_min
	LDS  R26,_cds_mean
	CP   R26,R30
	BRSH _0x4B
	LDS  R30,_cds_mean
	STS  _cds_min,R30
; 0000 016B         if(cds_mean > cds_max) cds_max = cds_mean;
_0x4B:
	LDS  R30,_cds_max
	LDS  R26,_cds_mean
	CP   R30,R26
	BRSH _0x4C
	LDS  R30,_cds_mean
	STS  _cds_max,R30
; 0000 016C 
; 0000 016D         delay_ms(100);
_0x4C:
	CALL SUBOPT_0x11
; 0000 016E     }
	RJMP _0x48
_0x4A:
; 0000 016F }
	RET
;
;// *********************************** About Motor **********************************************
;void initiation()
; 0000 0173 {
_initiation:
; 0000 0174     //  
; 0000 0175     OCRr = 65535;
	__GETD1N 0xFFFF
	CALL SUBOPT_0x6
; 0000 0176     OCRl = 65535;
	__GETD1N 0xFFFF
	CALL SUBOPT_0xA
; 0000 0177     // Step initiation
; 0000 0178     step = 0;
	LDI  R30,LOW(0)
	STS  _step,R30
; 0000 0179     Motor_on;
	LDI  R30,LOW(16)
	STS  125,R30
	OUT  0x37,R30
; 0000 017A }
	RET
;
;void motor_off()
; 0000 017D {
_motor_off:
; 0000 017E     TableIndexTarget = 0;
	CALL SUBOPT_0x20
; 0000 017F     stop_flag = 1;
	LDI  R30,LOW(1)
	MOV  R12,R30
; 0000 0180     while((LaccTableIndex>0) || (RaccTableIndex>0))
_0x4D:
	CALL SUBOPT_0x8
	CALL __CPD02
	BRLT _0x50
	CALL SUBOPT_0x3
	CALL __CPD02
	BRGE _0x4F
_0x50:
; 0000 0181     {
; 0000 0182         TableIndexTarget = 0;
	CALL SUBOPT_0x20
; 0000 0183     }
	RJMP _0x4D
_0x4F:
; 0000 0184     stop_flag = 0;
	CLR  R12
; 0000 0185     Motor_off;
	LDI  R30,LOW(0)
	STS  125,R30
	OUT  0x37,R30
; 0000 0186 
; 0000 0187     PORTC = 0x00;
	OUT  0x15,R30
; 0000 0188     TableIndexTarget = SearchTableIndex;
	LDS  R30,_SearchTableIndex
	LDS  R31,_SearchTableIndex+1
	LDS  R22,_SearchTableIndex+2
	LDS  R23,_SearchTableIndex+3
	STS  _TableIndexTarget,R30
	STS  _TableIndexTarget+1,R31
	STS  _TableIndexTarget+2,R22
	STS  _TableIndexTarget+3,R23
; 0000 0189 }
	RET
;
;void motor_test(void)
; 0000 018C {
_motor_test:
; 0000 018D     lcd_clear();
	CALL _lcd_clear
; 0000 018E     delay_ms(500);
	CALL SUBOPT_0x12
; 0000 018F     lcd_gotoxy(0, 0);
	CALL SUBOPT_0x13
; 0000 0190     lcd_putsf("TESTing");
	__POINTW1FN _0x0,25
	CALL SUBOPT_0x21
; 0000 0191 
; 0000 0192     initiation();
	RCALL _initiation
; 0000 0193     while(Middle_switch_off)
_0x52:
	SBIS 0x1,5
	RJMP _0x54
; 0000 0194     {
; 0000 0195         PORTA = 0x01;
	LDI  R30,LOW(1)
	OUT  0x1B,R30
; 0000 0196         delay_ms(50);
	LDI  R30,LOW(50)
	LDI  R31,HIGH(50)
	CALL SUBOPT_0x1D
; 0000 0197     };
	RJMP _0x52
_0x54:
; 0000 0198 
; 0000 0199     motor_off();
	RCALL _motor_off
; 0000 019A     PORTA=0x00;
	LDI  R30,LOW(0)
	OUT  0x1B,R30
; 0000 019B }
	RET
;
;//*************************************** About Running ***************************************************************
;// Update position
;void update_position()
; 0000 01A0 {
_update_position:
; 0000 01A1     distance_Max = (10000/dist_min[1]);  // PSD &  
	__GETB1MN _dist_min,1
	CALL SUBOPT_0x22
	STS  _distance_Max,R30
	STS  _distance_Max+1,R31
	STS  _distance_Max+2,R22
	STS  _distance_Max+3,R23
; 0000 01A2     distance_min = (10000/dist_max[1]);
	__GETB1MN _dist_max,1
	CALL SUBOPT_0x22
	STS  _distance_min,R30
	STS  _distance_min+1,R31
	STS  _distance_min+2,R22
	STS  _distance_min+3,R23
; 0000 01A3     //mean_dist();
; 0000 01A4     //   
; 0000 01A5     if(dist_mean[1] < dist_min[1] || dist_mean[1] > dist_max[1])
	__GETB2MN _dist_mean,1
	__GETB1MN _dist_min,1
	CP   R26,R30
	BRLO _0x56
	__GETB2MN _dist_mean,1
	__GETB1MN _dist_max,1
	CP   R30,R26
	BRSH _0x55
_0x56:
; 0000 01A6         leave_flag = 1;
	LDI  R30,LOW(1)
	RJMP _0x8E
; 0000 01A7 
; 0000 01A8     else
_0x55:
; 0000 01A9     {
; 0000 01AA         //  
; 0000 01AB         detach = 0;
	LDI  R30,LOW(0)
	STS  _detach,R30
; 0000 01AC         approach = 0;
	STS  _approach,R30
; 0000 01AD         leave_flag = 0;
_0x8E:
	STS  _leave_flag,R30
; 0000 01AE         //degree_factor = 0;
; 0000 01AF     }
; 0000 01B0 
; 0000 01B1     if(leave_flag)
	CPI  R30,0
	BRNE PC+3
	JMP _0x59
; 0000 01B2     {
; 0000 01B3         // ********** Degree of head **********
; 0000 01B4         degree_factor = (unsigned long)(100*(2*dist_mean[0])/(dist_min[0]+dist_max[0]));
	LDS  R30,_dist_mean
	LDI  R26,LOW(2)
	MUL  R30,R26
	MOVW R30,R0
	LDI  R26,LOW(100)
	LDI  R27,HIGH(100)
	CALL __MULW12
	MOVW R0,R30
	LDS  R26,_dist_min
	CLR  R27
	LDS  R30,_dist_max
	LDI  R31,0
	ADD  R30,R26
	ADC  R31,R27
	MOVW R26,R0
	CALL __DIVW21
	CALL __CWD1
	CALL SUBOPT_0x23
; 0000 01B5         if(degree_factor > 100) degree_factor = 100;
	LDS  R26,_degree_factor
	LDS  R27,_degree_factor+1
	LDS  R24,_degree_factor+2
	LDS  R25,_degree_factor+3
	__CPD2N 0x65
	BRLO _0x5A
	__GETD1N 0x64
	CALL SUBOPT_0x23
; 0000 01B6         head_reach = (unsigned long)(100*degree_factor/dist_mean[1]);
_0x5A:
	CALL SUBOPT_0x24
	__GETD2N 0x64
	CALL SUBOPT_0x25
	__GETB1MN _dist_mean,1
	LDI  R31,0
	CALL SUBOPT_0x26
	STS  _head_reach,R30
	STS  _head_reach+1,R31
	STS  _head_reach+2,R22
	STS  _head_reach+3,R23
; 0000 01B7 
; 0000 01B8         // ******** Right/Left posiotion ********
; 0000 01B9         // Detaching from wall
; 0000 01BA         if(head_reach > distance_Max)
	LDS  R30,_distance_Max
	LDS  R31,_distance_Max+1
	LDS  R22,_distance_Max+2
	LDS  R23,_distance_Max+3
	CALL SUBOPT_0x27
	CALL __CPD12
	BRSH _0x5B
; 0000 01BB         {
; 0000 01BC             detach = 1;
	LDI  R30,LOW(1)
	STS  _detach,R30
; 0000 01BD             approach = 0;
	LDI  R30,LOW(0)
	STS  _approach,R30
; 0000 01BE             //delta = dist_min[0] - dist_mean[0];
; 0000 01BF         }
; 0000 01C0 
; 0000 01C1         // Approaching wall
; 0000 01C2         if(head_reach < distance_min)
_0x5B:
	LDS  R30,_distance_min
	LDS  R31,_distance_min+1
	LDS  R22,_distance_min+2
	LDS  R23,_distance_min+3
	CALL SUBOPT_0x27
	CALL __CPD21
	BRSH _0x5C
; 0000 01C3         {
; 0000 01C4             approach = 1;
	LDI  R30,LOW(1)
	STS  _approach,R30
; 0000 01C5             detach = 0;
	LDI  R30,LOW(0)
	STS  _detach,R30
; 0000 01C6             //delta = dist_mean[0] - dist_max[0];
; 0000 01C7         }
; 0000 01C8     }
_0x5C:
; 0000 01C9     if(detach)  dir = +1;
_0x59:
	LDS  R30,_detach
	CPI  R30,0
	BREQ _0x5D
	LDI  R30,LOW(1)
	LDI  R31,HIGH(1)
	STS  _dir,R30
	STS  _dir+1,R31
; 0000 01CA     else if(approach) dir = -1;
	RJMP _0x5E
_0x5D:
	LDS  R30,_approach
	CPI  R30,0
	BREQ _0x5F
	LDI  R30,LOW(65535)
	LDI  R31,HIGH(65535)
	STS  _dir,R30
	STS  _dir+1,R31
; 0000 01CB     else;
_0x5F:
_0x5E:
; 0000 01CC     //  : degree_factor(1000*cos(theta)), detach, approach(direction)
; 0000 01CD 
; 0000 01CE }
	RET
;
;void check_angle()
; 0000 01D1 {
_check_angle:
; 0000 01D2     delay_ms(100);
	CALL SUBOPT_0x11
; 0000 01D3     while(Middle_switch_off)
_0x61:
	SBIS 0x1,5
	RJMP _0x63
; 0000 01D4     {
; 0000 01D5         mean_dist();
	RCALL _mean_dist
; 0000 01D6         update_position();
	RCALL _update_position
; 0000 01D7         lcd_clear();
	CALL SUBOPT_0x1E
; 0000 01D8         lcd_gotoxy(0, 0);
; 0000 01D9         lcd_putsf("Angle");
	__POINTW1FN _0x0,33
	CALL SUBOPT_0x21
; 0000 01DA         lcd_gotoxy(0, 1);
	LDI  R30,LOW(0)
	CALL SUBOPT_0x18
; 0000 01DB         sprintf(lcd_data, "%d", dir*(degree_factor-100));
	CALL SUBOPT_0x1F
	CALL SUBOPT_0x28
	LDS  R26,_dir
	LDS  R27,_dir+1
	CALL __CWD2
	CALL __MULD12U
	CALL __PUTPARD1
	LDI  R24,4
	CALL _sprintf
	ADIW R28,8
; 0000 01DC         //sprintf(lcd_data, "%d", detach);
; 0000 01DD         lcd_puts(lcd_data);
	LDI  R30,LOW(_lcd_data)
	LDI  R31,HIGH(_lcd_data)
	ST   -Y,R31
	ST   -Y,R30
	CALL _lcd_puts
; 0000 01DE         delay_ms(500);
	CALL SUBOPT_0x12
; 0000 01DF     }
	RJMP _0x61
_0x63:
; 0000 01E0 }
	RET
;
;void update_PID(void)
; 0000 01E3 {
_update_PID:
; 0000 01E4     //signed long temp;
; 0000 01E5 
; 0000 01E6     // P-control
; 0000 01E7     //temp = (signed long)Pgain * degree_factor;
; 0000 01E8     //temp = (signed long)(Pgain * (degree_factor-100) * (25/15));
; 0000 01E9     temp = (signed long)(Pgain * dir * (degree_factor-100));
	MOV  R30,R11
	LDI  R31,0
	LDS  R26,_dir
	LDS  R27,_dir+1
	CALL __MULW12
	MOVW R26,R30
	CALL SUBOPT_0x28
	CALL __CWD2
	CALL __MULD12U
	CALL SUBOPT_0x29
; 0000 01EA 
; 0000 01EB     //  ??
; 0000 01EC     if(temp > 1111) temp = 1111;
	CALL SUBOPT_0x2A
	__CPD2N 0x458
	BRLT _0x64
	__GETD1N 0x457
	RJMP _0x8F
; 0000 01ED     else if(temp < -1111) temp = -1111;
_0x64:
	CALL SUBOPT_0x2A
	__CPD2N 0xFFFFFBA9
	BRGE _0x66
	__GETD1N 0xFFFFFBA9
_0x8F:
	STS  _temp,R30
	STS  _temp+1,R31
	STS  _temp+2,R22
	STS  _temp+3,R23
; 0000 01EE     temp = temp * 9;
_0x66:
	LDS  R30,_temp
	LDS  R31,_temp+1
	LDS  R22,_temp+2
	LDS  R23,_temp+3
	__GETD2N 0x9
	CALL __MULD12
	CALL SUBOPT_0x29
; 0000 01EF     denominator = temp;
	LDS  R30,_temp
	LDS  R31,_temp+1
	STS  _denominator,R30
	STS  _denominator+1,R31
; 0000 01F0 
; 0000 01F1     //  
; 0000 01F2     tempr = (((unsigned long)table[RaccTableIndex]) * 10000 / (denominator+10000));
	CALL SUBOPT_0x5
	CALL SUBOPT_0x2B
	LDS  R30,_denominator
	LDS  R31,_denominator+1
	SUBI R30,LOW(-10000)
	SBCI R31,HIGH(-10000)
	CALL SUBOPT_0x26
	CALL SUBOPT_0x2C
; 0000 01F3     if(tempr>65534) tempr = 65534;
	CALL SUBOPT_0x2D
	CALL SUBOPT_0x2E
	BRLT _0x67
	__GETD1N 0xFFFE
	CALL SUBOPT_0x2C
; 0000 01F4 	if(tempr<1) tempr = 1;
_0x67:
	CALL SUBOPT_0x2D
	CALL SUBOPT_0x2F
	BRGE _0x68
	__GETD1N 0x1
	CALL SUBOPT_0x2C
; 0000 01F5 
; 0000 01F6     templ = (((unsigned long)table[LaccTableIndex]) * 10000 / (-denominator+10000));
_0x68:
	CALL SUBOPT_0x9
	CALL SUBOPT_0x2B
	LDS  R30,_denominator
	LDS  R31,_denominator+1
	CALL __ANEGW1
	SUBI R30,LOW(-10000)
	SBCI R31,HIGH(-10000)
	CALL SUBOPT_0x26
	CALL SUBOPT_0x30
; 0000 01F7     if(templ>65534) templ = 65534;
	CALL SUBOPT_0x31
	CALL SUBOPT_0x2E
	BRLT _0x69
	__GETD1N 0xFFFE
	CALL SUBOPT_0x30
; 0000 01F8     if(templ<1) templ = 1;
_0x69:
	CALL SUBOPT_0x31
	CALL SUBOPT_0x2F
	BRGE _0x6A
	__GETD1N 0x1
	CALL SUBOPT_0x30
; 0000 01F9 }
_0x6A:
	RET
;
;/*
;void check_temp()
;{
;    delay_ms(100);
;    while(Middle_switch_off)
;    {
;        initiation();
;        mean_dist();
;        update_position();
;        update_PID();
;
;        lcd_clear();
;        lcd_gotoxy(0, 0);
;        lcd_putsf("temp");
;        lcd_gotoxy(0, 1);
;        sprintf(lcd_data, "%d", tempr);
;        lcd_puts(lcd_data);
;        delay_ms(500);
;        Motor_off;
;    }
;}
;*/
;
;//About race
;void navigate(void)
; 0000 0214 {
_navigate:
; 0000 0215     lcd_clear();
	CALL SUBOPT_0x1E
; 0000 0216     lcd_gotoxy(0, 0);
; 0000 0217     lcd_putsf("GO!!");
	__POINTW1FN _0x0,39
	CALL SUBOPT_0x21
; 0000 0218     delay_ms(500);
	CALL SUBOPT_0x12
; 0000 0219     mode = 1;
	LDI  R30,LOW(1)
	STS  _mode,R30
; 0000 021A     if(Middle_switch_off)
	SBIS 0x1,5
	RJMP _0x6B
; 0000 021B     {
; 0000 021C         initiation();
	RCALL _initiation
; 0000 021D 
; 0000 021E         while(Middle_switch_off)
_0x6C:
	SBIS 0x1,5
	RJMP _0x6E
; 0000 021F         {
; 0000 0220             mean_dist();
	RCALL _mean_dist
; 0000 0221             update_position();
	RCALL _update_position
; 0000 0222             update_PID();
	RCALL _update_PID
; 0000 0223         }
	RJMP _0x6C
_0x6E:
; 0000 0224         motor_off();
	RCALL _motor_off
; 0000 0225     }
; 0000 0226     mode = 0;
_0x6B:
	LDI  R30,LOW(0)
	STS  _mode,R30
; 0000 0227 }
	RET
;
;void Speed_up(void)
; 0000 022A {
; 0000 022B     delay_ms(100);
; 0000 022C     while(Middle_switch_off)
; 0000 022D     {
; 0000 022E         if(Left_switch_on) SearchTableIndex+=10;
; 0000 022F         if(Right_switch_on) SearchTableIndex-=10;
; 0000 0230 
; 0000 0231         lcd_clear();
; 0000 0232         lcd_gotoxy(0,0);
; 0000 0233         lcd_putsf("Speed!!");
; 0000 0234 
; 0000 0235         lcd_gotoxy(0, 1);
; 0000 0236         sprintf(lcd_data, "%d", SearchTableIndex);
; 0000 0237         lcd_puts(lcd_data);
; 0000 0238         delay_ms(100);
; 0000 0239     }
; 0000 023A }
;
;// ********************************************* main ******************************************************************
;void main(void)
; 0000 023E {
_main:
; 0000 023F // Declare your local variables here
; 0000 0240 // menu
; 0000 0241 unsigned char menu = 0;
; 0000 0242 unsigned char menu_Max = 6;
; 0000 0243 
; 0000 0244 
; 0000 0245 PORTA=0x00;
;	menu -> R17
;	menu_Max -> R16
	LDI  R17,0
	LDI  R16,6
	LDI  R30,LOW(0)
	OUT  0x1B,R30
; 0000 0246 DDRA=0xFF;
	LDI  R30,LOW(255)
	OUT  0x1A,R30
; 0000 0247 
; 0000 0248 PORTB=0x00;
	LDI  R30,LOW(0)
	OUT  0x18,R30
; 0000 0249 DDRB=0x00;
	OUT  0x17,R30
; 0000 024A 
; 0000 024B PORTC=0x00;
	OUT  0x15,R30
; 0000 024C DDRC=0xFF;
	LDI  R30,LOW(255)
	OUT  0x14,R30
; 0000 024D 
; 0000 024E PORTD=0x00;
	LDI  R30,LOW(0)
	OUT  0x12,R30
; 0000 024F DDRD=0xFF;
	LDI  R30,LOW(255)
	OUT  0x11,R30
; 0000 0250 
; 0000 0251 PORTE=0x00;
	LDI  R30,LOW(0)
	OUT  0x3,R30
; 0000 0252 DDRE=0x8F;
	LDI  R30,LOW(143)
	OUT  0x2,R30
; 0000 0253 
; 0000 0254 PORTF=0x00;
	LDI  R30,LOW(0)
	STS  98,R30
; 0000 0255 DDRF=0x00;
	STS  97,R30
; 0000 0256 
; 0000 0257 PORTG=0x00;
	STS  101,R30
; 0000 0258 DDRG=0x00;
	STS  100,R30
; 0000 0259 /*
; 0000 025A // Timer/Counter 0 initialization
; 0000 025B // Clock source: System Clock
; 0000 025C // Clock value: Timer 0 Stopped
; 0000 025D // Mode: Normal top=0xFF
; 0000 025E // OC0 output: Disconnected
; 0000 025F ASSR=0x00;
; 0000 0260 TCCR0=0x00;
; 0000 0261 TCNT0=0x00;
; 0000 0262 OCR0=0x00;
; 0000 0263 */
; 0000 0264 // Timer/Counter 1 initialization
; 0000 0265 // Clock source: System Clock
; 0000 0266 // Clock value: 2000.000 kHz
; 0000 0267 // Mode: CTC top=OCR1A
; 0000 0268 // OC1A output: Discon.
; 0000 0269 // OC1B output: Discon.
; 0000 026A // OC1C output: Discon.
; 0000 026B // Noise Canceler: Off
; 0000 026C // Input Capture on Falling Edge
; 0000 026D // Timer1 Overflow Interrupt: On
; 0000 026E // Input Capture Interrupt: Off
; 0000 026F // Compare A Match Interrupt: On
; 0000 0270 // Compare B Match Interrupt: Off
; 0000 0271 // Compare C Match Interrupt: Off
; 0000 0272 TCCR1A=0x00;
	OUT  0x2F,R30
; 0000 0273 TCCR1B=0x09;
	LDI  R30,LOW(9)
	OUT  0x2E,R30
; 0000 0274 TCNT1H=0x00;
	LDI  R30,LOW(0)
	OUT  0x2D,R30
; 0000 0275 TCNT1L=0x00;
	OUT  0x2C,R30
; 0000 0276 ICR1H=0x00;
	OUT  0x27,R30
; 0000 0277 ICR1L=0x00;
	OUT  0x26,R30
; 0000 0278 OCR1AH=0x00;
	OUT  0x2B,R30
; 0000 0279 OCR1AL=0x00;
	OUT  0x2A,R30
; 0000 027A OCR1BH=0x00;
	OUT  0x29,R30
; 0000 027B OCR1BL=0x00;
	OUT  0x28,R30
; 0000 027C OCR1CH=0x00;
	STS  121,R30
; 0000 027D OCR1CL=0x00;
	STS  120,R30
; 0000 027E /*
; 0000 027F // Timer/Counter 2 initialization
; 0000 0280 // Clock source: System Clock
; 0000 0281 // Clock value: Timer2 Stopped
; 0000 0282 // Mode: Normal top=0xFF
; 0000 0283 // OC2 output: Disconnected
; 0000 0284 TCCR2=0x00;
; 0000 0285 TCNT2=0x00;
; 0000 0286 OCR2=0x00;
; 0000 0287 */
; 0000 0288 // Timer/Counter 3 initialization
; 0000 0289 // Clock source: System Clock
; 0000 028A // Clock value: 2000.000 kHz
; 0000 028B // Mode: CTC top=OCR3A
; 0000 028C // OC3A output: Discon.
; 0000 028D // OC3B output: Discon.
; 0000 028E // OC3C output: Discon.
; 0000 028F // Noise Canceler: Off
; 0000 0290 // Input Capture on Falling Edge
; 0000 0291 // Timer3 Overflow Interrupt: On
; 0000 0292 // Input Capture Interrupt: Off
; 0000 0293 // Compare A Match Interrupt: On
; 0000 0294 // Compare B Match Interrupt: Off
; 0000 0295 // Compare C Match Interrupt: Off
; 0000 0296 TCCR3A=0x00;
	STS  139,R30
; 0000 0297 TCCR3B=0x09;
	LDI  R30,LOW(9)
	STS  138,R30
; 0000 0298 TCNT3H=0x00;
	LDI  R30,LOW(0)
	STS  137,R30
; 0000 0299 TCNT3L=0x00;
	STS  136,R30
; 0000 029A ICR3H=0x00;
	STS  129,R30
; 0000 029B ICR3L=0x00;
	STS  128,R30
; 0000 029C OCR3AH=0x00;
	STS  135,R30
; 0000 029D OCR3AL=0x00;
	STS  134,R30
; 0000 029E OCR3BH=0x00;
	STS  133,R30
; 0000 029F OCR3BL=0x00;
	STS  132,R30
; 0000 02A0 OCR3CH=0x00;
	STS  131,R30
; 0000 02A1 OCR3CL=0x00;
	STS  130,R30
; 0000 02A2 
; 0000 02A3 // Timer(s)/Counter(s) Interrupt(s) initialization
; 0000 02A4 //TIMSK=0x10;
; 0000 02A5 
; 0000 02A6 //ETIMSK=0x10;
; 0000 02A7 
; 0000 02A8 // ADC initialization
; 0000 02A9 // ADC Clock frequency: 1000.000 kHz
; 0000 02AA // ADC Voltage Reference: AREF pin
; 0000 02AB ADMUX=0x25;
	LDI  R30,LOW(37)
	OUT  0x7,R30
; 0000 02AC ADCSRA=0xCF;
	LDI  R30,LOW(207)
	OUT  0x6,R30
; 0000 02AD 
; 0000 02AE // Alphanumeric LCD initialization
; 0000 02AF // Connections specified in the
; 0000 02B0 // Project|Configure|C Compiler|Libraries|Alphanumeric LCD menu:
; 0000 02B1 // RS - PORTD Bit 0
; 0000 02B2 // RD - PORTD Bit 1
; 0000 02B3 // EN - PORTD Bit 2
; 0000 02B4 // D4 - PORTD Bit 4
; 0000 02B5 // D5 - PORTD Bit 5
; 0000 02B6 // D6 - PORTD Bit 6
; 0000 02B7 // D7 - PORTD Bit 7
; 0000 02B8 // Characters/line: 8
; 0000 02B9 lcd_init(8);
	LDI  R30,LOW(8)
	ST   -Y,R30
	CALL _lcd_init
; 0000 02BA 
; 0000 02BB // Global enable interrupts
; 0000 02BC #asm("sei")
	sei
; 0000 02BD SREG = 0x80;
	LDI  R30,LOW(128)
	OUT  0x3F,R30
; 0000 02BE 
; 0000 02BF while (1)
_0x74:
; 0000 02C0       {
; 0000 02C1         if(Left_switch_on) menu++;
	SBIS 0x1,4
	SUBI R17,-1
; 0000 02C2         if(Right_switch_on) menu--;
	SBIS 0x1,6
	SUBI R17,1
; 0000 02C3         if(menu > menu_Max)    menu = 0;
	CP   R16,R17
	BRSH _0x79
	LDI  R17,LOW(0)
; 0000 02C4         if(menu == 0)
_0x79:
	CPI  R17,0
	BRNE _0x7A
; 0000 02C5             if(Right_switch_on) menu = menu_Max;
	SBIS 0x1,6
	MOV  R17,R16
; 0000 02C6 
; 0000 02C7         //Distance averaging...
; 0000 02C8         //mean_dist();
; 0000 02C9         switch(menu)
_0x7A:
	MOV  R30,R17
	LDI  R31,0
; 0000 02CA         {
; 0000 02CB             case 0:
	SBIW R30,0
	BRNE _0x7F
; 0000 02CC                     lcd_clear();
	CALL SUBOPT_0x1E
; 0000 02CD                     lcd_gotoxy(0, 0);
; 0000 02CE                     lcd_putsf("1.PSD TEST");
	__POINTW1FN _0x0,52
	CALL SUBOPT_0x21
; 0000 02CF                     if(Middle_switch_on) PSD_test();
	SBIS 0x1,5
	RCALL _PSD_test
; 0000 02D0                     delay_ms(50);
	RJMP _0x90
; 0000 02D1                     break;
; 0000 02D2 
; 0000 02D3             case 1:
_0x7F:
	CPI  R30,LOW(0x1)
	LDI  R26,HIGH(0x1)
	CPC  R31,R26
	BRNE _0x81
; 0000 02D4                     lcd_clear();
	CALL SUBOPT_0x1E
; 0000 02D5                     lcd_gotoxy(0, 0);
; 0000 02D6                     lcd_putsf("2.CDS");
	__POINTW1FN _0x0,63
	CALL SUBOPT_0x21
; 0000 02D7                     sprintf(lcd_data, "%d", cds_data);
	CALL SUBOPT_0x1F
	CALL SUBOPT_0x1C
; 0000 02D8                     lcd_puts(lcd_data);
; 0000 02D9                     if(Middle_switch_on)    cds_test();
	SBIS 0x1,5
	RCALL _cds_test
; 0000 02DA                     delay_ms(50);
	RJMP _0x90
; 0000 02DB                     break;
; 0000 02DC 
; 0000 02DD             case 2:
_0x81:
	CPI  R30,LOW(0x2)
	LDI  R26,HIGH(0x2)
	CPC  R31,R26
	BRNE _0x83
; 0000 02DE 
; 0000 02DF                     lcd_clear();
	CALL SUBOPT_0x1E
; 0000 02E0                     lcd_gotoxy(0, 0);
; 0000 02E1                     lcd_putsf("3.PSD Tuning");
	__POINTW1FN _0x0,69
	CALL SUBOPT_0x21
; 0000 02E2                     if(Middle_switch_on)    PSD_tuning();
	SBIS 0x1,5
	RCALL _PSD_tuning
; 0000 02E3                     delay_ms(50);
	RJMP _0x90
; 0000 02E4                     break;
; 0000 02E5 
; 0000 02E6             case 3:
_0x83:
	CPI  R30,LOW(0x3)
	LDI  R26,HIGH(0x3)
	CPC  R31,R26
	BRNE _0x85
; 0000 02E7                     lcd_clear();
	CALL SUBOPT_0x1E
; 0000 02E8                     lcd_gotoxy(0, 0);
; 0000 02E9                     lcd_putsf("4.cds Tuning");
	__POINTW1FN _0x0,82
	CALL SUBOPT_0x21
; 0000 02EA                     if(Middle_switch_on)    cds_tuning();
	SBIS 0x1,5
	RCALL _cds_tuning
; 0000 02EB                     delay_ms(50);
	RJMP _0x90
; 0000 02EC                     break;
; 0000 02ED 
; 0000 02EE 
; 0000 02EF             case 4:
_0x85:
	CPI  R30,LOW(0x4)
	LDI  R26,HIGH(0x4)
	CPC  R31,R26
	BRNE _0x87
; 0000 02F0                     lcd_clear();
	CALL SUBOPT_0x1E
; 0000 02F1                     lcd_gotoxy(0, 0);
; 0000 02F2                     lcd_putsf("5.Motor_test");
	__POINTW1FN _0x0,95
	CALL SUBOPT_0x21
; 0000 02F3                     if(Middle_switch_on)    motor_test();
	SBIS 0x1,5
	RCALL _motor_test
; 0000 02F4                     delay_ms(50);
	RJMP _0x90
; 0000 02F5                     break;
; 0000 02F6 
; 0000 02F7              case 5:
_0x87:
	CPI  R30,LOW(0x5)
	LDI  R26,HIGH(0x5)
	CPC  R31,R26
	BRNE _0x89
; 0000 02F8 
; 0000 02F9                     lcd_clear();
	CALL SUBOPT_0x1E
; 0000 02FA                     lcd_gotoxy(0, 0);
; 0000 02FB                     lcd_putsf("6.Cos");
	__POINTW1FN _0x0,108
	CALL SUBOPT_0x21
; 0000 02FC                     if(Middle_switch_on)    check_angle();
	SBIS 0x1,5
	RCALL _check_angle
; 0000 02FD                     delay_ms(50);
	RJMP _0x90
; 0000 02FE                     break;
; 0000 02FF 
; 0000 0300              case 6:
_0x89:
	CPI  R30,LOW(0x6)
	LDI  R26,HIGH(0x6)
	CPC  R31,R26
	BRNE _0x7E
; 0000 0301                     lcd_clear();
	CALL SUBOPT_0x1E
; 0000 0302                     lcd_gotoxy(0, 0);
; 0000 0303                     lcd_putsf("7.Navigate");
	__POINTW1FN _0x0,114
	CALL SUBOPT_0x21
; 0000 0304                     if(Middle_switch_on)    navigate();
	SBIS 0x1,5
	RCALL _navigate
; 0000 0305                     delay_ms(50);
_0x90:
	LDI  R30,LOW(50)
	LDI  R31,HIGH(50)
	CALL SUBOPT_0x1D
; 0000 0306                     break;
; 0000 0307          }
_0x7E:
; 0000 0308          delay_ms(100);
	CALL SUBOPT_0x11
; 0000 0309       }
	RJMP _0x74
; 0000 030A 
; 0000 030B }
_0x8D:
	RJMP _0x8D
	#ifndef __SLEEP_DEFINED__
	#define __SLEEP_DEFINED__
	.EQU __se_bit=0x20
	.EQU __sm_mask=0x1C
	.EQU __sm_powerdown=0x10
	.EQU __sm_powersave=0x18
	.EQU __sm_standby=0x14
	.EQU __sm_ext_standby=0x1C
	.EQU __sm_adc_noise_red=0x08
	.SET power_ctrl_reg=mcucr
	#endif

	.CSEG
_put_buff_G100:
	ST   -Y,R17
	ST   -Y,R16
	LDD  R26,Y+2
	LDD  R27,Y+2+1
	ADIW R26,2
	CALL __GETW1P
	SBIW R30,0
	BREQ _0x2000010
	LDD  R26,Y+2
	LDD  R27,Y+2+1
	ADIW R26,4
	CALL __GETW1P
	MOVW R16,R30
	SBIW R30,0
	BREQ _0x2000012
	__CPWRN 16,17,2
	BRLO _0x2000013
	MOVW R30,R16
	SBIW R30,1
	MOVW R16,R30
	__PUTW1SNS 2,4
_0x2000012:
	LDD  R26,Y+2
	LDD  R27,Y+2+1
	ADIW R26,2
	LD   R30,X+
	LD   R31,X+
	ADIW R30,1
	ST   -X,R31
	ST   -X,R30
	SBIW R30,1
	LDD  R26,Y+4
	STD  Z+0,R26
	LDD  R26,Y+2
	LDD  R27,Y+2+1
	CALL __GETW1P
	TST  R31
	BRMI _0x2000014
	LD   R30,X+
	LD   R31,X+
	ADIW R30,1
	ST   -X,R31
	ST   -X,R30
_0x2000014:
_0x2000013:
	RJMP _0x2000015
_0x2000010:
	LDD  R26,Y+2
	LDD  R27,Y+2+1
	LDI  R30,LOW(65535)
	LDI  R31,HIGH(65535)
	ST   X+,R30
	ST   X,R31
_0x2000015:
	LDD  R17,Y+1
	LDD  R16,Y+0
	ADIW R28,5
	RET
__print_G100:
	SBIW R28,6
	CALL __SAVELOCR6
	LDI  R17,0
	LDD  R26,Y+12
	LDD  R27,Y+12+1
	LDI  R30,LOW(0)
	LDI  R31,HIGH(0)
	ST   X+,R30
	ST   X,R31
_0x2000016:
	LDD  R30,Y+18
	LDD  R31,Y+18+1
	ADIW R30,1
	STD  Y+18,R30
	STD  Y+18+1,R31
	SBIW R30,1
	LPM  R30,Z
	MOV  R18,R30
	CPI  R30,0
	BRNE PC+3
	JMP _0x2000018
	MOV  R30,R17
	CPI  R30,0
	BRNE _0x200001C
	CPI  R18,37
	BRNE _0x200001D
	LDI  R17,LOW(1)
	RJMP _0x200001E
_0x200001D:
	CALL SUBOPT_0x32
_0x200001E:
	RJMP _0x200001B
_0x200001C:
	CPI  R30,LOW(0x1)
	BRNE _0x200001F
	CPI  R18,37
	BRNE _0x2000020
	CALL SUBOPT_0x32
	RJMP _0x20000C9
_0x2000020:
	LDI  R17,LOW(2)
	LDI  R20,LOW(0)
	LDI  R16,LOW(0)
	CPI  R18,45
	BRNE _0x2000021
	LDI  R16,LOW(1)
	RJMP _0x200001B
_0x2000021:
	CPI  R18,43
	BRNE _0x2000022
	LDI  R20,LOW(43)
	RJMP _0x200001B
_0x2000022:
	CPI  R18,32
	BRNE _0x2000023
	LDI  R20,LOW(32)
	RJMP _0x200001B
_0x2000023:
	RJMP _0x2000024
_0x200001F:
	CPI  R30,LOW(0x2)
	BRNE _0x2000025
_0x2000024:
	LDI  R21,LOW(0)
	LDI  R17,LOW(3)
	CPI  R18,48
	BRNE _0x2000026
	ORI  R16,LOW(128)
	RJMP _0x200001B
_0x2000026:
	RJMP _0x2000027
_0x2000025:
	CPI  R30,LOW(0x3)
	BREQ PC+3
	JMP _0x200001B
_0x2000027:
	CPI  R18,48
	BRLO _0x200002A
	CPI  R18,58
	BRLO _0x200002B
_0x200002A:
	RJMP _0x2000029
_0x200002B:
	LDI  R26,LOW(10)
	MUL  R21,R26
	MOV  R21,R0
	MOV  R30,R18
	SUBI R30,LOW(48)
	ADD  R21,R30
	RJMP _0x200001B
_0x2000029:
	MOV  R30,R18
	CPI  R30,LOW(0x63)
	BRNE _0x200002F
	CALL SUBOPT_0x33
	LDD  R30,Y+16
	LDD  R31,Y+16+1
	LDD  R26,Z+4
	ST   -Y,R26
	CALL SUBOPT_0x34
	RJMP _0x2000030
_0x200002F:
	CPI  R30,LOW(0x73)
	BRNE _0x2000032
	CALL SUBOPT_0x33
	CALL SUBOPT_0x35
	CALL _strlen
	MOV  R17,R30
	RJMP _0x2000033
_0x2000032:
	CPI  R30,LOW(0x70)
	BRNE _0x2000035
	CALL SUBOPT_0x33
	CALL SUBOPT_0x35
	CALL _strlenf
	MOV  R17,R30
	ORI  R16,LOW(8)
_0x2000033:
	ORI  R16,LOW(2)
	ANDI R16,LOW(127)
	LDI  R19,LOW(0)
	RJMP _0x2000036
_0x2000035:
	CPI  R30,LOW(0x64)
	BREQ _0x2000039
	CPI  R30,LOW(0x69)
	BRNE _0x200003A
_0x2000039:
	ORI  R16,LOW(4)
	RJMP _0x200003B
_0x200003A:
	CPI  R30,LOW(0x75)
	BRNE _0x200003C
_0x200003B:
	LDI  R30,LOW(_tbl10_G100*2)
	LDI  R31,HIGH(_tbl10_G100*2)
	STD  Y+6,R30
	STD  Y+6+1,R31
	LDI  R17,LOW(5)
	RJMP _0x200003D
_0x200003C:
	CPI  R30,LOW(0x58)
	BRNE _0x200003F
	ORI  R16,LOW(8)
	RJMP _0x2000040
_0x200003F:
	CPI  R30,LOW(0x78)
	BREQ PC+3
	JMP _0x2000071
_0x2000040:
	LDI  R30,LOW(_tbl16_G100*2)
	LDI  R31,HIGH(_tbl16_G100*2)
	STD  Y+6,R30
	STD  Y+6+1,R31
	LDI  R17,LOW(4)
_0x200003D:
	SBRS R16,2
	RJMP _0x2000042
	CALL SUBOPT_0x33
	CALL SUBOPT_0x36
	LDD  R26,Y+11
	TST  R26
	BRPL _0x2000043
	LDD  R30,Y+10
	LDD  R31,Y+10+1
	CALL __ANEGW1
	STD  Y+10,R30
	STD  Y+10+1,R31
	LDI  R20,LOW(45)
_0x2000043:
	CPI  R20,0
	BREQ _0x2000044
	SUBI R17,-LOW(1)
	RJMP _0x2000045
_0x2000044:
	ANDI R16,LOW(251)
_0x2000045:
	RJMP _0x2000046
_0x2000042:
	CALL SUBOPT_0x33
	CALL SUBOPT_0x36
_0x2000046:
_0x2000036:
	SBRC R16,0
	RJMP _0x2000047
_0x2000048:
	CP   R17,R21
	BRSH _0x200004A
	SBRS R16,7
	RJMP _0x200004B
	SBRS R16,2
	RJMP _0x200004C
	ANDI R16,LOW(251)
	MOV  R18,R20
	SUBI R17,LOW(1)
	RJMP _0x200004D
_0x200004C:
	LDI  R18,LOW(48)
_0x200004D:
	RJMP _0x200004E
_0x200004B:
	LDI  R18,LOW(32)
_0x200004E:
	CALL SUBOPT_0x32
	SUBI R21,LOW(1)
	RJMP _0x2000048
_0x200004A:
_0x2000047:
	MOV  R19,R17
	SBRS R16,1
	RJMP _0x200004F
_0x2000050:
	CPI  R19,0
	BREQ _0x2000052
	SBRS R16,3
	RJMP _0x2000053
	LDD  R30,Y+6
	LDD  R31,Y+6+1
	LPM  R18,Z+
	STD  Y+6,R30
	STD  Y+6+1,R31
	RJMP _0x2000054
_0x2000053:
	LDD  R26,Y+6
	LDD  R27,Y+6+1
	LD   R18,X+
	STD  Y+6,R26
	STD  Y+6+1,R27
_0x2000054:
	CALL SUBOPT_0x32
	CPI  R21,0
	BREQ _0x2000055
	SUBI R21,LOW(1)
_0x2000055:
	SUBI R19,LOW(1)
	RJMP _0x2000050
_0x2000052:
	RJMP _0x2000056
_0x200004F:
_0x2000058:
	LDI  R18,LOW(48)
	LDD  R30,Y+6
	LDD  R31,Y+6+1
	CALL __GETW1PF
	STD  Y+8,R30
	STD  Y+8+1,R31
	LDD  R30,Y+6
	LDD  R31,Y+6+1
	ADIW R30,2
	STD  Y+6,R30
	STD  Y+6+1,R31
_0x200005A:
	LDD  R30,Y+8
	LDD  R31,Y+8+1
	LDD  R26,Y+10
	LDD  R27,Y+10+1
	CP   R26,R30
	CPC  R27,R31
	BRLO _0x200005C
	SUBI R18,-LOW(1)
	LDD  R26,Y+8
	LDD  R27,Y+8+1
	LDD  R30,Y+10
	LDD  R31,Y+10+1
	SUB  R30,R26
	SBC  R31,R27
	STD  Y+10,R30
	STD  Y+10+1,R31
	RJMP _0x200005A
_0x200005C:
	CPI  R18,58
	BRLO _0x200005D
	SBRS R16,3
	RJMP _0x200005E
	SUBI R18,-LOW(7)
	RJMP _0x200005F
_0x200005E:
	SUBI R18,-LOW(39)
_0x200005F:
_0x200005D:
	SBRC R16,4
	RJMP _0x2000061
	CPI  R18,49
	BRSH _0x2000063
	LDD  R26,Y+8
	LDD  R27,Y+8+1
	SBIW R26,1
	BRNE _0x2000062
_0x2000063:
	RJMP _0x20000CA
_0x2000062:
	CP   R21,R19
	BRLO _0x2000067
	SBRS R16,0
	RJMP _0x2000068
_0x2000067:
	RJMP _0x2000066
_0x2000068:
	LDI  R18,LOW(32)
	SBRS R16,7
	RJMP _0x2000069
	LDI  R18,LOW(48)
_0x20000CA:
	ORI  R16,LOW(16)
	SBRS R16,2
	RJMP _0x200006A
	ANDI R16,LOW(251)
	ST   -Y,R20
	CALL SUBOPT_0x34
	CPI  R21,0
	BREQ _0x200006B
	SUBI R21,LOW(1)
_0x200006B:
_0x200006A:
_0x2000069:
_0x2000061:
	CALL SUBOPT_0x32
	CPI  R21,0
	BREQ _0x200006C
	SUBI R21,LOW(1)
_0x200006C:
_0x2000066:
	SUBI R19,LOW(1)
	LDD  R26,Y+8
	LDD  R27,Y+8+1
	SBIW R26,2
	BRLO _0x2000059
	RJMP _0x2000058
_0x2000059:
_0x2000056:
	SBRS R16,0
	RJMP _0x200006D
_0x200006E:
	CPI  R21,0
	BREQ _0x2000070
	SUBI R21,LOW(1)
	LDI  R30,LOW(32)
	ST   -Y,R30
	CALL SUBOPT_0x34
	RJMP _0x200006E
_0x2000070:
_0x200006D:
_0x2000071:
_0x2000030:
_0x20000C9:
	LDI  R17,LOW(0)
_0x200001B:
	RJMP _0x2000016
_0x2000018:
	LDD  R26,Y+12
	LDD  R27,Y+12+1
	CALL __GETW1P
	CALL __LOADLOCR6
	ADIW R28,20
	RET
_sprintf:
	PUSH R15
	MOV  R15,R24
	SBIW R28,6
	CALL __SAVELOCR4
	CALL SUBOPT_0x37
	SBIW R30,0
	BRNE _0x2000072
	LDI  R30,LOW(65535)
	LDI  R31,HIGH(65535)
	RJMP _0x20C0003
_0x2000072:
	MOVW R26,R28
	ADIW R26,6
	CALL __ADDW2R15
	MOVW R16,R26
	CALL SUBOPT_0x37
	STD  Y+6,R30
	STD  Y+6+1,R31
	LDI  R30,LOW(0)
	STD  Y+8,R30
	STD  Y+8+1,R30
	MOVW R26,R28
	ADIW R26,10
	CALL __ADDW2R15
	CALL __GETW1P
	ST   -Y,R31
	ST   -Y,R30
	ST   -Y,R17
	ST   -Y,R16
	LDI  R30,LOW(_put_buff_G100)
	LDI  R31,HIGH(_put_buff_G100)
	ST   -Y,R31
	ST   -Y,R30
	MOVW R30,R28
	ADIW R30,10
	ST   -Y,R31
	ST   -Y,R30
	RCALL __print_G100
	MOVW R18,R30
	LDD  R26,Y+6
	LDD  R27,Y+6+1
	LDI  R30,LOW(0)
	ST   X,R30
	MOVW R30,R18
_0x20C0003:
	CALL __LOADLOCR4
	ADIW R28,10
	POP  R15
	RET

	.CSEG
    .equ __lcd_direction=__lcd_port-1
    .equ __lcd_pin=__lcd_port-2
    .equ __lcd_rs=0
    .equ __lcd_rd=1
    .equ __lcd_enable=2
    .equ __lcd_busy_flag=7

	.DSEG

	.CSEG
__lcd_delay_G102:
    ldi   r31,15
__lcd_delay0:
    dec   r31
    brne  __lcd_delay0
	RET
__lcd_ready:
    in    r26,__lcd_direction
    andi  r26,0xf                 ;set as input
    out   __lcd_direction,r26
    sbi   __lcd_port,__lcd_rd     ;RD=1
    cbi   __lcd_port,__lcd_rs     ;RS=0
__lcd_busy:
	RCALL __lcd_delay_G102
    sbi   __lcd_port,__lcd_enable ;EN=1
	RCALL __lcd_delay_G102
    in    r26,__lcd_pin
    cbi   __lcd_port,__lcd_enable ;EN=0
	RCALL __lcd_delay_G102
    sbi   __lcd_port,__lcd_enable ;EN=1
	RCALL __lcd_delay_G102
    cbi   __lcd_port,__lcd_enable ;EN=0
    sbrc  r26,__lcd_busy_flag
    rjmp  __lcd_busy
	RET
__lcd_write_nibble_G102:
    andi  r26,0xf0
    or    r26,r27
    out   __lcd_port,r26          ;write
    sbi   __lcd_port,__lcd_enable ;EN=1
	CALL __lcd_delay_G102
    cbi   __lcd_port,__lcd_enable ;EN=0
	CALL __lcd_delay_G102
	RET
__lcd_write_data:
    cbi  __lcd_port,__lcd_rd 	  ;RD=0
    in    r26,__lcd_direction
    ori   r26,0xf0 | (1<<__lcd_rs) | (1<<__lcd_rd) | (1<<__lcd_enable) ;set as output
    out   __lcd_direction,r26
    in    r27,__lcd_port
    andi  r27,0xf
    ld    r26,y
	RCALL __lcd_write_nibble_G102
    ld    r26,y
    swap  r26
	RCALL __lcd_write_nibble_G102
    sbi   __lcd_port,__lcd_rd     ;RD=1
	JMP  _0x20C0001
__lcd_read_nibble_G102:
    sbi   __lcd_port,__lcd_enable ;EN=1
	CALL __lcd_delay_G102
    in    r30,__lcd_pin           ;read
    cbi   __lcd_port,__lcd_enable ;EN=0
	CALL __lcd_delay_G102
    andi  r30,0xf0
	RET
_lcd_read_byte0_G102:
	CALL __lcd_delay_G102
	RCALL __lcd_read_nibble_G102
    mov   r26,r30
	RCALL __lcd_read_nibble_G102
    cbi   __lcd_port,__lcd_rd     ;RD=0
    swap  r30
    or    r30,r26
	RET
_lcd_gotoxy:
	CALL __lcd_ready
	LD   R30,Y
	LDI  R31,0
	SUBI R30,LOW(-__base_y_G102)
	SBCI R31,HIGH(-__base_y_G102)
	LD   R30,Z
	LDD  R26,Y+1
	ADD  R30,R26
	ST   -Y,R30
	CALL __lcd_write_data
	LDD  R30,Y+1
	STS  __lcd_x,R30
	LD   R30,Y
	STS  __lcd_y,R30
	ADIW R28,2
	RET
_lcd_clear:
	CALL __lcd_ready
	LDI  R30,LOW(2)
	ST   -Y,R30
	CALL __lcd_write_data
	CALL __lcd_ready
	LDI  R30,LOW(12)
	ST   -Y,R30
	CALL __lcd_write_data
	CALL __lcd_ready
	LDI  R30,LOW(1)
	ST   -Y,R30
	CALL __lcd_write_data
	LDI  R30,LOW(0)
	STS  __lcd_y,R30
	STS  __lcd_x,R30
	RET
_lcd_putchar:
    push r30
    push r31
    ld   r26,y
    set
    cpi  r26,10
    breq __lcd_putchar1
    clt
	LDS  R30,__lcd_maxx
	LDS  R26,__lcd_x
	CP   R26,R30
	BRLO _0x2040004
	__lcd_putchar1:
	LDS  R30,__lcd_y
	SUBI R30,-LOW(1)
	STS  __lcd_y,R30
	LDI  R30,LOW(0)
	ST   -Y,R30
	LDS  R30,__lcd_y
	ST   -Y,R30
	RCALL _lcd_gotoxy
	brts __lcd_putchar0
_0x2040004:
	LDS  R30,__lcd_x
	SUBI R30,-LOW(1)
	STS  __lcd_x,R30
    rcall __lcd_ready
    sbi  __lcd_port,__lcd_rs ;RS=1
    ld   r26,y
    st   -y,r26
    rcall __lcd_write_data
__lcd_putchar0:
    pop  r31
    pop  r30
	JMP  _0x20C0001
_lcd_puts:
	ST   -Y,R17
_0x2040005:
	LDD  R26,Y+1
	LDD  R27,Y+1+1
	LD   R30,X+
	STD  Y+1,R26
	STD  Y+1+1,R27
	MOV  R17,R30
	CPI  R30,0
	BREQ _0x2040007
	ST   -Y,R17
	RCALL _lcd_putchar
	RJMP _0x2040005
_0x2040007:
	RJMP _0x20C0002
_lcd_putsf:
	ST   -Y,R17
_0x2040008:
	LDD  R30,Y+1
	LDD  R31,Y+1+1
	ADIW R30,1
	STD  Y+1,R30
	STD  Y+1+1,R31
	SBIW R30,1
	LPM  R30,Z
	MOV  R17,R30
	CPI  R30,0
	BREQ _0x204000A
	ST   -Y,R17
	RCALL _lcd_putchar
	RJMP _0x2040008
_0x204000A:
_0x20C0002:
	LDD  R17,Y+0
	ADIW R28,3
	RET
__long_delay_G102:
    clr   r26
    clr   r27
__long_delay0:
    sbiw  r26,1         ;2 cycles
    brne  __long_delay0 ;2 cycles
	RET
__lcd_init_write_G102:
    cbi  __lcd_port,__lcd_rd 	  ;RD=0
    in    r26,__lcd_direction
    ori   r26,0xf7                ;set as output
    out   __lcd_direction,r26
    in    r27,__lcd_port
    andi  r27,0xf
    ld    r26,y
	CALL __lcd_write_nibble_G102
    sbi   __lcd_port,__lcd_rd     ;RD=1
	RJMP _0x20C0001
_lcd_init:
    cbi   __lcd_port,__lcd_enable ;EN=0
    cbi   __lcd_port,__lcd_rs     ;RS=0
	LD   R30,Y
	STS  __lcd_maxx,R30
	SUBI R30,-LOW(128)
	__PUTB1MN __base_y_G102,2
	LD   R30,Y
	SUBI R30,-LOW(192)
	__PUTB1MN __base_y_G102,3
	CALL SUBOPT_0x38
	CALL SUBOPT_0x38
	CALL SUBOPT_0x38
	RCALL __long_delay_G102
	LDI  R30,LOW(32)
	ST   -Y,R30
	RCALL __lcd_init_write_G102
	RCALL __long_delay_G102
	LDI  R30,LOW(40)
	CALL SUBOPT_0x39
	LDI  R30,LOW(4)
	CALL SUBOPT_0x39
	LDI  R30,LOW(133)
	CALL SUBOPT_0x39
    in    r26,__lcd_direction
    andi  r26,0xf                 ;set as input
    out   __lcd_direction,r26
    sbi   __lcd_port,__lcd_rd     ;RD=1
	CALL _lcd_read_byte0_G102
	CPI  R30,LOW(0x5)
	BREQ _0x204000B
	LDI  R30,LOW(0)
	RJMP _0x20C0001
_0x204000B:
	CALL __lcd_ready
	LDI  R30,LOW(6)
	ST   -Y,R30
	CALL __lcd_write_data
	CALL _lcd_clear
	LDI  R30,LOW(1)
_0x20C0001:
	ADIW R28,1
	RET

	.CSEG

	.CSEG
_strlen:
    ld   r26,y+
    ld   r27,y+
    clr  r30
    clr  r31
strlen0:
    ld   r22,x+
    tst  r22
    breq strlen1
    adiw r30,1
    rjmp strlen0
strlen1:
    ret
_strlenf:
    clr  r26
    clr  r27
    ld   r30,y+
    ld   r31,y+
strlenf0:
	lpm  r0,z+
    tst  r0
    breq strlenf1
    adiw r26,1
    rjmp strlenf0
strlenf1:
    movw r30,r26
    ret

	.CSEG

	.DSEG

	.CSEG

	.DSEG
_lcd_data:
	.BYTE 0x28
_RMotorPhase:
	.BYTE 0x8
_LMotorPhase:
	.BYTE 0x8
_RaccTableIndex:
	.BYTE 0x4
_LaccTableIndex:
	.BYTE 0x4
_SearchTableIndex:
	.BYTE 0x4
_TableIndexTarget:
	.BYTE 0x4
_OCRr:
	.BYTE 0x4
_OCRl:
	.BYTE 0x4
_temp:
	.BYTE 0x4
_templ:
	.BYTE 0x4
_tempr:
	.BYTE 0x4
_denominator:
	.BYTE 0x2
_step:
	.BYTE 0x1
_minustop:
	.BYTE 0x1
_mux:
	.BYTE 0x1
_num_sample:
	.BYTE 0x1
_d_flag:
	.BYTE 0x1
_dist_data:
	.BYTE 0x12C
_dist_max:
	.BYTE 0x3
_dist_min:
	.BYTE 0x3
_dist_sum:
	.BYTE 0x6
_dist_mean:
	.BYTE 0x3
_cds_data:
	.BYTE 0x64
_cds_max:
	.BYTE 0x1
_cds_min:
	.BYTE 0x1
_cds_sum:
	.BYTE 0x2
_cds_mean:
	.BYTE 0x1
_leave_flag:
	.BYTE 0x1
_approach:
	.BYTE 0x1
_detach:
	.BYTE 0x1
_degree_factor:
	.BYTE 0x4
_head_reach:
	.BYTE 0x4
_distance_Max:
	.BYTE 0x4
_distance_min:
	.BYTE 0x4
_dir:
	.BYTE 0x2
_mode:
	.BYTE 0x1
__base_y_G102:
	.BYTE 0x4
__lcd_x:
	.BYTE 0x1
__lcd_y:
	.BYTE 0x1
__lcd_maxx:
	.BYTE 0x1
__seed_G105:
	.BYTE 0x4

	.CSEG
;OPTIMIZER ADDED SUBROUTINE, CALLED 2 TIMES, CODE SIZE REDUCTION:6 WORDS
SUBOPT_0x0:
	ST   -Y,R0
	ST   -Y,R22
	ST   -Y,R23
	ST   -Y,R24
	ST   -Y,R25
	ST   -Y,R26
	ST   -Y,R27
	ST   -Y,R30
	ST   -Y,R31
	IN   R30,SREG
	ST   -Y,R30
	RET

;OPTIMIZER ADDED SUBROUTINE, CALLED 2 TIMES, CODE SIZE REDUCTION:11 WORDS
SUBOPT_0x1:
	LDS  R30,_RaccTableIndex
	LDS  R31,_RaccTableIndex+1
	LDS  R22,_RaccTableIndex+2
	LDS  R23,_RaccTableIndex+3
	LDS  R26,_TableIndexTarget
	LDS  R27,_TableIndexTarget+1
	LDS  R24,_TableIndexTarget+2
	LDS  R25,_TableIndexTarget+3
	RET

;OPTIMIZER ADDED SUBROUTINE, CALLED 2 TIMES, CODE SIZE REDUCTION:3 WORDS
SUBOPT_0x2:
	CALL __GETD1P_INC
	__SUBD1N -1
	CALL __PUTDP1_DEC
	RET

;OPTIMIZER ADDED SUBROUTINE, CALLED 3 TIMES, CODE SIZE REDUCTION:9 WORDS
SUBOPT_0x3:
	LDS  R26,_RaccTableIndex
	LDS  R27,_RaccTableIndex+1
	LDS  R24,_RaccTableIndex+2
	LDS  R25,_RaccTableIndex+3
	RET

;OPTIMIZER ADDED SUBROUTINE, CALLED 2 TIMES, CODE SIZE REDUCTION:2 WORDS
SUBOPT_0x4:
	CALL __GETD1P_INC
	SBIW R30,1
	SBCI R22,0
	SBCI R23,0
	CALL __PUTDP1_DEC
	RET

;OPTIMIZER ADDED SUBROUTINE, CALLED 2 TIMES, CODE SIZE REDUCTION:5 WORDS
SUBOPT_0x5:
	LDS  R30,_RaccTableIndex
	LDS  R31,_RaccTableIndex+1
	LDI  R26,LOW(_table*2)
	LDI  R27,HIGH(_table*2)
	LSL  R30
	ROL  R31
	ADD  R30,R26
	ADC  R31,R27
	RET

;OPTIMIZER ADDED SUBROUTINE, CALLED 3 TIMES, CODE SIZE REDUCTION:9 WORDS
SUBOPT_0x6:
	STS  _OCRr,R30
	STS  _OCRr+1,R31
	STS  _OCRr+2,R22
	STS  _OCRr+3,R23
	RET

;OPTIMIZER ADDED SUBROUTINE, CALLED 2 TIMES, CODE SIZE REDUCTION:11 WORDS
SUBOPT_0x7:
	LDS  R30,_LaccTableIndex
	LDS  R31,_LaccTableIndex+1
	LDS  R22,_LaccTableIndex+2
	LDS  R23,_LaccTableIndex+3
	LDS  R26,_TableIndexTarget
	LDS  R27,_TableIndexTarget+1
	LDS  R24,_TableIndexTarget+2
	LDS  R25,_TableIndexTarget+3
	RET

;OPTIMIZER ADDED SUBROUTINE, CALLED 3 TIMES, CODE SIZE REDUCTION:9 WORDS
SUBOPT_0x8:
	LDS  R26,_LaccTableIndex
	LDS  R27,_LaccTableIndex+1
	LDS  R24,_LaccTableIndex+2
	LDS  R25,_LaccTableIndex+3
	RET

;OPTIMIZER ADDED SUBROUTINE, CALLED 2 TIMES, CODE SIZE REDUCTION:5 WORDS
SUBOPT_0x9:
	LDS  R30,_LaccTableIndex
	LDS  R31,_LaccTableIndex+1
	LDI  R26,LOW(_table*2)
	LDI  R27,HIGH(_table*2)
	LSL  R30
	ROL  R31
	ADD  R30,R26
	ADC  R31,R27
	RET

;OPTIMIZER ADDED SUBROUTINE, CALLED 3 TIMES, CODE SIZE REDUCTION:9 WORDS
SUBOPT_0xA:
	STS  _OCRl,R30
	STS  _OCRl+1,R31
	STS  _OCRl+2,R22
	STS  _OCRl+3,R23
	RET

;OPTIMIZER ADDED SUBROUTINE, CALLED 3 TIMES, CODE SIZE REDUCTION:9 WORDS
SUBOPT_0xB:
	MOV  R30,R17
	LDI  R26,LOW(_dist_sum)
	LDI  R27,HIGH(_dist_sum)
	LDI  R31,0
	LSL  R30
	ROL  R31
	RET

;OPTIMIZER ADDED SUBROUTINE, CALLED 4 TIMES, CODE SIZE REDUCTION:9 WORDS
SUBOPT_0xC:
	MOV  R30,R17
	LDI  R31,0
	SUBI R30,LOW(-_dist_mean)
	SBCI R31,HIGH(-_dist_mean)
	RET

;OPTIMIZER ADDED SUBROUTINE, CALLED 2 TIMES, CODE SIZE REDUCTION:1 WORDS
SUBOPT_0xD:
	LDI  R30,LOW(300)
	LDI  R31,HIGH(300)
	ST   -Y,R31
	ST   -Y,R30
	JMP  _delay_ms

;OPTIMIZER ADDED SUBROUTINE, CALLED 2 TIMES, CODE SIZE REDUCTION:19 WORDS
SUBOPT_0xE:
	CALL _lcd_clear
	LDI  R30,LOW(0)
	ST   -Y,R30
	ST   -Y,R30
	CALL _lcd_gotoxy
	__POINTW1FN _0x0,0
	ST   -Y,R31
	ST   -Y,R30
	CALL _lcd_putsf
	LDI  R30,LOW(0)
	ST   -Y,R30
	LDI  R30,LOW(1)
	ST   -Y,R30
	CALL _lcd_gotoxy
	LDI  R30,LOW(_lcd_data)
	LDI  R31,HIGH(_lcd_data)
	ST   -Y,R31
	ST   -Y,R30
	RET

;OPTIMIZER ADDED SUBROUTINE, CALLED 7 TIMES, CODE SIZE REDUCTION:75 WORDS
SUBOPT_0xF:
	CLR  R31
	CLR  R22
	CLR  R23
	CALL __PUTPARD1
	LDI  R24,4
	CALL _sprintf
	ADIW R28,8
	LDI  R30,LOW(_lcd_data)
	LDI  R31,HIGH(_lcd_data)
	ST   -Y,R31
	ST   -Y,R30
	JMP  _lcd_puts

;OPTIMIZER ADDED SUBROUTINE, CALLED 3 TIMES, CODE SIZE REDUCTION:21 WORDS
SUBOPT_0x10:
	LDI  R30,LOW(5)
	ST   -Y,R30
	LDI  R30,LOW(1)
	ST   -Y,R30
	CALL _lcd_gotoxy
	LDI  R30,LOW(_lcd_data)
	LDI  R31,HIGH(_lcd_data)
	ST   -Y,R31
	ST   -Y,R30
	__POINTW1FN _0x0,14
	ST   -Y,R31
	ST   -Y,R30
	RET

;OPTIMIZER ADDED SUBROUTINE, CALLED 5 TIMES, CODE SIZE REDUCTION:13 WORDS
SUBOPT_0x11:
	LDI  R30,LOW(100)
	LDI  R31,HIGH(100)
	ST   -Y,R31
	ST   -Y,R30
	JMP  _delay_ms

;OPTIMIZER ADDED SUBROUTINE, CALLED 5 TIMES, CODE SIZE REDUCTION:13 WORDS
SUBOPT_0x12:
	LDI  R30,LOW(500)
	LDI  R31,HIGH(500)
	ST   -Y,R31
	ST   -Y,R30
	JMP  _delay_ms

;OPTIMIZER ADDED SUBROUTINE, CALLED 12 TIMES, CODE SIZE REDUCTION:41 WORDS
SUBOPT_0x13:
	LDI  R30,LOW(0)
	ST   -Y,R30
	ST   -Y,R30
	JMP  _lcd_gotoxy

;OPTIMIZER ADDED SUBROUTINE, CALLED 2 TIMES, CODE SIZE REDUCTION:4 WORDS
SUBOPT_0x14:
	LDI  R30,LOW(_lcd_data)
	LDI  R31,HIGH(_lcd_data)
	ST   -Y,R31
	ST   -Y,R30
	__POINTW1FN _0x0,14
	ST   -Y,R31
	ST   -Y,R30
	MOV  R30,R16
	RET

;OPTIMIZER ADDED SUBROUTINE, CALLED 3 TIMES, CODE SIZE REDUCTION:3 WORDS
SUBOPT_0x15:
	ST   -Y,R30
	LDI  R30,LOW(0)
	ST   -Y,R30
	JMP  _lcd_gotoxy

;OPTIMIZER ADDED SUBROUTINE, CALLED 2 TIMES, CODE SIZE REDUCTION:4 WORDS
SUBOPT_0x16:
	__POINTW1FN _0x0,17
	ST   -Y,R31
	ST   -Y,R30
	CALL _lcd_putsf
	LDI  R30,LOW(5)
	RJMP SUBOPT_0x15

;OPTIMIZER ADDED SUBROUTINE, CALLED 2 TIMES, CODE SIZE REDUCTION:1 WORDS
SUBOPT_0x17:
	__POINTW1FN _0x0,21
	ST   -Y,R31
	ST   -Y,R30
	JMP  _lcd_putsf

;OPTIMIZER ADDED SUBROUTINE, CALLED 3 TIMES, CODE SIZE REDUCTION:3 WORDS
SUBOPT_0x18:
	ST   -Y,R30
	LDI  R30,LOW(1)
	ST   -Y,R30
	JMP  _lcd_gotoxy

;OPTIMIZER ADDED SUBROUTINE, CALLED 2 TIMES, CODE SIZE REDUCTION:4 WORDS
SUBOPT_0x19:
	MOV  R30,R17
	LDI  R31,0
	MOVW R0,R30
	SUBI R30,LOW(-_dist_mean)
	SBCI R31,HIGH(-_dist_mean)
	LD   R26,Z
	MOVW R30,R0
	RET

;OPTIMIZER ADDED SUBROUTINE, CALLED 2 TIMES, CODE SIZE REDUCTION:2 WORDS
SUBOPT_0x1A:
	LDI  R31,0
	LDS  R26,_cds_sum
	LDS  R27,_cds_sum+1
	RET

;OPTIMIZER ADDED SUBROUTINE, CALLED 4 TIMES, CODE SIZE REDUCTION:3 WORDS
SUBOPT_0x1B:
	__POINTW1FN _0x0,14
	ST   -Y,R31
	ST   -Y,R30
	RET

;OPTIMIZER ADDED SUBROUTINE, CALLED 2 TIMES, CODE SIZE REDUCTION:11 WORDS
SUBOPT_0x1C:
	LDI  R30,LOW(_cds_data)
	LDI  R31,HIGH(_cds_data)
	CLR  R22
	CLR  R23
	CALL __PUTPARD1
	LDI  R24,4
	CALL _sprintf
	ADIW R28,8
	LDI  R30,LOW(_lcd_data)
	LDI  R31,HIGH(_lcd_data)
	ST   -Y,R31
	ST   -Y,R30
	JMP  _lcd_puts

;OPTIMIZER ADDED SUBROUTINE, CALLED 3 TIMES, CODE SIZE REDUCTION:1 WORDS
SUBOPT_0x1D:
	ST   -Y,R31
	ST   -Y,R30
	JMP  _delay_ms

;OPTIMIZER ADDED SUBROUTINE, CALLED 10 TIMES, CODE SIZE REDUCTION:15 WORDS
SUBOPT_0x1E:
	CALL _lcd_clear
	RJMP SUBOPT_0x13

;OPTIMIZER ADDED SUBROUTINE, CALLED 3 TIMES, CODE SIZE REDUCTION:5 WORDS
SUBOPT_0x1F:
	LDI  R30,LOW(_lcd_data)
	LDI  R31,HIGH(_lcd_data)
	ST   -Y,R31
	ST   -Y,R30
	RJMP SUBOPT_0x1B

;OPTIMIZER ADDED SUBROUTINE, CALLED 2 TIMES, CODE SIZE REDUCTION:4 WORDS
SUBOPT_0x20:
	LDI  R30,LOW(0)
	STS  _TableIndexTarget,R30
	STS  _TableIndexTarget+1,R30
	STS  _TableIndexTarget+2,R30
	STS  _TableIndexTarget+3,R30
	RET

;OPTIMIZER ADDED SUBROUTINE, CALLED 10 TIMES, CODE SIZE REDUCTION:15 WORDS
SUBOPT_0x21:
	ST   -Y,R31
	ST   -Y,R30
	JMP  _lcd_putsf

;OPTIMIZER ADDED SUBROUTINE, CALLED 2 TIMES, CODE SIZE REDUCTION:4 WORDS
SUBOPT_0x22:
	LDI  R31,0
	LDI  R26,LOW(10000)
	LDI  R27,HIGH(10000)
	CALL __DIVW21
	CALL __CWD1
	RET

;OPTIMIZER ADDED SUBROUTINE, CALLED 2 TIMES, CODE SIZE REDUCTION:3 WORDS
SUBOPT_0x23:
	STS  _degree_factor,R30
	STS  _degree_factor+1,R31
	STS  _degree_factor+2,R22
	STS  _degree_factor+3,R23
	RET

;OPTIMIZER ADDED SUBROUTINE, CALLED 3 TIMES, CODE SIZE REDUCTION:9 WORDS
SUBOPT_0x24:
	LDS  R30,_degree_factor
	LDS  R31,_degree_factor+1
	LDS  R22,_degree_factor+2
	LDS  R23,_degree_factor+3
	RET

;OPTIMIZER ADDED SUBROUTINE, CALLED 3 TIMES, CODE SIZE REDUCTION:1 WORDS
SUBOPT_0x25:
	CALL __MULD12U
	MOVW R26,R30
	MOVW R24,R22
	RET

;OPTIMIZER ADDED SUBROUTINE, CALLED 3 TIMES, CODE SIZE REDUCTION:1 WORDS
SUBOPT_0x26:
	CALL __CWD1
	CALL __DIVD21U
	RET

;OPTIMIZER ADDED SUBROUTINE, CALLED 2 TIMES, CODE SIZE REDUCTION:3 WORDS
SUBOPT_0x27:
	LDS  R26,_head_reach
	LDS  R27,_head_reach+1
	LDS  R24,_head_reach+2
	LDS  R25,_head_reach+3
	RET

;OPTIMIZER ADDED SUBROUTINE, CALLED 2 TIMES, CODE SIZE REDUCTION:1 WORDS
SUBOPT_0x28:
	RCALL SUBOPT_0x24
	__SUBD1N 100
	RET

;OPTIMIZER ADDED SUBROUTINE, CALLED 2 TIMES, CODE SIZE REDUCTION:3 WORDS
SUBOPT_0x29:
	STS  _temp,R30
	STS  _temp+1,R31
	STS  _temp+2,R22
	STS  _temp+3,R23
	RET

;OPTIMIZER ADDED SUBROUTINE, CALLED 2 TIMES, CODE SIZE REDUCTION:3 WORDS
SUBOPT_0x2A:
	LDS  R26,_temp
	LDS  R27,_temp+1
	LDS  R24,_temp+2
	LDS  R25,_temp+3
	RET

;OPTIMIZER ADDED SUBROUTINE, CALLED 2 TIMES, CODE SIZE REDUCTION:5 WORDS
SUBOPT_0x2B:
	CALL __GETW2PF
	CLR  R24
	CLR  R25
	__GETD1N 0x2710
	RJMP SUBOPT_0x25

;OPTIMIZER ADDED SUBROUTINE, CALLED 3 TIMES, CODE SIZE REDUCTION:9 WORDS
SUBOPT_0x2C:
	STS  _tempr,R30
	STS  _tempr+1,R31
	STS  _tempr+2,R22
	STS  _tempr+3,R23
	RET

;OPTIMIZER ADDED SUBROUTINE, CALLED 2 TIMES, CODE SIZE REDUCTION:3 WORDS
SUBOPT_0x2D:
	LDS  R26,_tempr
	LDS  R27,_tempr+1
	LDS  R24,_tempr+2
	LDS  R25,_tempr+3
	RET

;OPTIMIZER ADDED SUBROUTINE, CALLED 2 TIMES, CODE SIZE REDUCTION:2 WORDS
SUBOPT_0x2E:
	__CPD2N 0xFFFF
	RET

;OPTIMIZER ADDED SUBROUTINE, CALLED 2 TIMES, CODE SIZE REDUCTION:2 WORDS
SUBOPT_0x2F:
	__CPD2N 0x1
	RET

;OPTIMIZER ADDED SUBROUTINE, CALLED 3 TIMES, CODE SIZE REDUCTION:9 WORDS
SUBOPT_0x30:
	STS  _templ,R30
	STS  _templ+1,R31
	STS  _templ+2,R22
	STS  _templ+3,R23
	RET

;OPTIMIZER ADDED SUBROUTINE, CALLED 2 TIMES, CODE SIZE REDUCTION:3 WORDS
SUBOPT_0x31:
	LDS  R26,_templ
	LDS  R27,_templ+1
	LDS  R24,_templ+2
	LDS  R25,_templ+3
	RET

;OPTIMIZER ADDED SUBROUTINE, CALLED 5 TIMES, CODE SIZE REDUCTION:21 WORDS
SUBOPT_0x32:
	ST   -Y,R18
	LDD  R30,Y+13
	LDD  R31,Y+13+1
	ST   -Y,R31
	ST   -Y,R30
	LDD  R30,Y+17
	LDD  R31,Y+17+1
	ICALL
	RET

;OPTIMIZER ADDED SUBROUTINE, CALLED 5 TIMES, CODE SIZE REDUCTION:9 WORDS
SUBOPT_0x33:
	LDD  R30,Y+16
	LDD  R31,Y+16+1
	SBIW R30,4
	STD  Y+16,R30
	STD  Y+16+1,R31
	RET

;OPTIMIZER ADDED SUBROUTINE, CALLED 3 TIMES, CODE SIZE REDUCTION:7 WORDS
SUBOPT_0x34:
	LDD  R30,Y+13
	LDD  R31,Y+13+1
	ST   -Y,R31
	ST   -Y,R30
	LDD  R30,Y+17
	LDD  R31,Y+17+1
	ICALL
	RET

;OPTIMIZER ADDED SUBROUTINE, CALLED 2 TIMES, CODE SIZE REDUCTION:6 WORDS
SUBOPT_0x35:
	LDD  R26,Y+16
	LDD  R27,Y+16+1
	ADIW R26,4
	CALL __GETW1P
	STD  Y+6,R30
	STD  Y+6+1,R31
	ST   -Y,R31
	ST   -Y,R30
	RET

;OPTIMIZER ADDED SUBROUTINE, CALLED 2 TIMES, CODE SIZE REDUCTION:2 WORDS
SUBOPT_0x36:
	LDD  R26,Y+16
	LDD  R27,Y+16+1
	ADIW R26,4
	CALL __GETW1P
	STD  Y+10,R30
	STD  Y+10+1,R31
	RET

;OPTIMIZER ADDED SUBROUTINE, CALLED 2 TIMES, CODE SIZE REDUCTION:1 WORDS
SUBOPT_0x37:
	MOVW R26,R28
	ADIW R26,12
	CALL __ADDW2R15
	CALL __GETW1P
	RET

;OPTIMIZER ADDED SUBROUTINE, CALLED 3 TIMES, CODE SIZE REDUCTION:5 WORDS
SUBOPT_0x38:
	CALL __long_delay_G102
	LDI  R30,LOW(48)
	ST   -Y,R30
	JMP  __lcd_init_write_G102

;OPTIMIZER ADDED SUBROUTINE, CALLED 3 TIMES, CODE SIZE REDUCTION:3 WORDS
SUBOPT_0x39:
	ST   -Y,R30
	CALL __lcd_write_data
	JMP  __long_delay_G102


	.CSEG
_delay_ms:
	ld   r30,y+
	ld   r31,y+
	adiw r30,0
	breq __delay_ms1
__delay_ms0:
	__DELAY_USW 0xFA0
	wdr
	sbiw r30,1
	brne __delay_ms0
__delay_ms1:
	ret

__ADDW2R15:
	CLR  R0
	ADD  R26,R15
	ADC  R27,R0
	RET

__SUBD21:
	SUB  R26,R30
	SBC  R27,R31
	SBC  R24,R22
	SBC  R25,R23
	RET

__ANEGW1:
	NEG  R31
	NEG  R30
	SBCI R31,0
	RET

__ANEGD1:
	COM  R31
	COM  R22
	COM  R23
	NEG  R30
	SBCI R31,-1
	SBCI R22,-1
	SBCI R23,-1
	RET

__ASRD12:
	TST  R30
	MOV  R0,R30
	MOVW R30,R26
	MOVW R22,R24
	BREQ __ASRD12R
__ASRD12L:
	ASR  R23
	ROR  R22
	ROR  R31
	ROR  R30
	DEC  R0
	BRNE __ASRD12L
__ASRD12R:
	RET

__CWD1:
	MOV  R22,R31
	ADD  R22,R22
	SBC  R22,R22
	MOV  R23,R22
	RET

__CWD2:
	MOV  R24,R27
	ADD  R24,R24
	SBC  R24,R24
	MOV  R25,R24
	RET

__MULW12U:
	MUL  R31,R26
	MOV  R31,R0
	MUL  R30,R27
	ADD  R31,R0
	MUL  R30,R26
	MOV  R30,R0
	ADD  R31,R1
	RET

__MULD12U:
	MUL  R23,R26
	MOV  R23,R0
	MUL  R22,R27
	ADD  R23,R0
	MUL  R31,R24
	ADD  R23,R0
	MUL  R30,R25
	ADD  R23,R0
	MUL  R22,R26
	MOV  R22,R0
	ADD  R23,R1
	MUL  R31,R27
	ADD  R22,R0
	ADC  R23,R1
	MUL  R30,R24
	ADD  R22,R0
	ADC  R23,R1
	CLR  R24
	MUL  R31,R26
	MOV  R31,R0
	ADD  R22,R1
	ADC  R23,R24
	MUL  R30,R27
	ADD  R31,R0
	ADC  R22,R1
	ADC  R23,R24
	MUL  R30,R26
	MOV  R30,R0
	ADD  R31,R1
	ADC  R22,R24
	ADC  R23,R24
	RET

__MULW12:
	RCALL __CHKSIGNW
	RCALL __MULW12U
	BRTC __MULW121
	RCALL __ANEGW1
__MULW121:
	RET

__MULD12:
	RCALL __CHKSIGND
	RCALL __MULD12U
	BRTC __MULD121
	RCALL __ANEGD1
__MULD121:
	RET

__DIVW21U:
	CLR  R0
	CLR  R1
	LDI  R25,16
__DIVW21U1:
	LSL  R26
	ROL  R27
	ROL  R0
	ROL  R1
	SUB  R0,R30
	SBC  R1,R31
	BRCC __DIVW21U2
	ADD  R0,R30
	ADC  R1,R31
	RJMP __DIVW21U3
__DIVW21U2:
	SBR  R26,1
__DIVW21U3:
	DEC  R25
	BRNE __DIVW21U1
	MOVW R30,R26
	MOVW R26,R0
	RET

__DIVW21:
	RCALL __CHKSIGNW
	RCALL __DIVW21U
	BRTC __DIVW211
	RCALL __ANEGW1
__DIVW211:
	RET

__DIVD21U:
	PUSH R19
	PUSH R20
	PUSH R21
	CLR  R0
	CLR  R1
	CLR  R20
	CLR  R21
	LDI  R19,32
__DIVD21U1:
	LSL  R26
	ROL  R27
	ROL  R24
	ROL  R25
	ROL  R0
	ROL  R1
	ROL  R20
	ROL  R21
	SUB  R0,R30
	SBC  R1,R31
	SBC  R20,R22
	SBC  R21,R23
	BRCC __DIVD21U2
	ADD  R0,R30
	ADC  R1,R31
	ADC  R20,R22
	ADC  R21,R23
	RJMP __DIVD21U3
__DIVD21U2:
	SBR  R26,1
__DIVD21U3:
	DEC  R19
	BRNE __DIVD21U1
	MOVW R30,R26
	MOVW R22,R24
	MOVW R26,R0
	MOVW R24,R20
	POP  R21
	POP  R20
	POP  R19
	RET

__CHKSIGNW:
	CLT
	SBRS R31,7
	RJMP __CHKSW1
	RCALL __ANEGW1
	SET
__CHKSW1:
	SBRS R27,7
	RJMP __CHKSW2
	COM  R26
	COM  R27
	ADIW R26,1
	BLD  R0,0
	INC  R0
	BST  R0,0
__CHKSW2:
	RET

__CHKSIGND:
	CLT
	SBRS R23,7
	RJMP __CHKSD1
	RCALL __ANEGD1
	SET
__CHKSD1:
	SBRS R25,7
	RJMP __CHKSD2
	CLR  R0
	COM  R26
	COM  R27
	COM  R24
	COM  R25
	ADIW R26,1
	ADC  R24,R0
	ADC  R25,R0
	BLD  R0,0
	INC  R0
	BST  R0,0
__CHKSD2:
	RET

__GETW1P:
	LD   R30,X+
	LD   R31,X
	SBIW R26,1
	RET

__GETD1P_INC:
	LD   R30,X+
	LD   R31,X+
	LD   R22,X+
	LD   R23,X+
	RET

__PUTDP1_DEC:
	ST   -X,R23
	ST   -X,R22
	ST   -X,R31
	ST   -X,R30
	RET

__GETW1PF:
	LPM  R0,Z+
	LPM  R31,Z
	MOV  R30,R0
	RET

__GETW2PF:
	LPM  R26,Z+
	LPM  R27,Z
	RET

__PUTPARD1:
	ST   -Y,R23
	ST   -Y,R22
	ST   -Y,R31
	ST   -Y,R30
	RET

__CPD02:
	CLR  R0
	CP   R0,R26
	CPC  R0,R27
	CPC  R0,R24
	CPC  R0,R25
	RET

__CPD12:
	CP   R30,R26
	CPC  R31,R27
	CPC  R22,R24
	CPC  R23,R25
	RET

__CPD21:
	CP   R26,R30
	CPC  R27,R31
	CPC  R24,R22
	CPC  R25,R23
	RET

__SAVELOCR6:
	ST   -Y,R21
__SAVELOCR5:
	ST   -Y,R20
__SAVELOCR4:
	ST   -Y,R19
__SAVELOCR3:
	ST   -Y,R18
__SAVELOCR2:
	ST   -Y,R17
	ST   -Y,R16
	RET

__LOADLOCR6:
	LDD  R21,Y+5
__LOADLOCR5:
	LDD  R20,Y+4
__LOADLOCR4:
	LDD  R19,Y+3
__LOADLOCR3:
	LDD  R18,Y+2
__LOADLOCR2:
	LDD  R17,Y+1
	LD   R16,Y
	RET

;END OF CODE MARKER
__END_OF_CODE:
